(lp0
(dp1
S'tweets'
p2
(lp3
(dp4
S'favorited'
p5
I00
sS'truncated'
p6
I00
sS'text'
p7
VBeautiful and thoughtful piece by Bill Clinton on Rabin's legacy: Finish Yitzhak Rabin\u2019s Work - http://nyti.ms/bZKTS1
p8
sS'created_at'
p9
S'Thu Nov 04 14:21:59 +0000 2010'
p10
sS'retweeted'
p11
I00
sS'coordinates'
p12
NsS'in_reply_to_status_id'
p13
NsS'place'
p14
NsS'in_reply_to_screen_name'
p15
NsS'retweet_count'
p16
NsS'geo'
p17
NsS'id'
p18
I29671383411
sa(dp19
S'favorited'
p20
I00
sS'truncated'
p21
I00
sS'text'
p22
S'Interesting (and funny) piece on the ridiculousness of TSA: @TheAtlantic: http://t.co/UlHrsII via @AddThis'
p23
sS'created_at'
p24
S'Mon Nov 01 17:08:22 +0000 2010'
p25
sS'retweeted'
p26
I00
sS'coordinates'
p27
NsS'in_reply_to_status_id'
p28
NsS'place'
p29
NsS'in_reply_to_screen_name'
p30
NsS'retweet_count'
p31
NsS'geo'
p32
NsS'id'
p33
I29390172944
sa(dp34
S'favorited'
p35
I00
sS'truncated'
p36
I00
sS'text'
p37
S'A reminder that we all need to pay more attention to the unfolding situation in #Sudan: http://www.youtube.com/watch?v=aqB1B3LYYao'
p38
sS'created_at'
p39
S'Fri Oct 22 19:23:16 +0000 2010'
p40
sS'retweeted'
p41
I00
sS'coordinates'
p42
NsS'in_reply_to_status_id'
p43
NsS'place'
p44
NsS'in_reply_to_screen_name'
p45
NsS'retweet_count'
p46
NsS'geo'
p47
NsS'id'
p48
I28432960038
sa(dp49
S'favorited'
p50
I00
sS'truncated'
p51
I00
sS'text'
p52
S'Scenes from a rural Moroccan village: http://the195.com/northwestern/2010/10/07/gender-roles-in-a-rural-moroccan-village/'
p53
sS'created_at'
p54
S'Fri Oct 08 18:01:07 +0000 2010'
p55
sS'retweeted'
p56
I00
sS'coordinates'
p57
NsS'in_reply_to_status_id'
p58
NsS'place'
p59
NsS'in_reply_to_screen_name'
p60
NsS'retweet_count'
p61
NsS'geo'
p62
NsS'id'
p63
I26772391121
sa(dp64
S'favorited'
p65
I00
sS'truncated'
p66
I00
sS'text'
p67
S"A really wonderful New Yorker piece about David Grossman's new book. Long, but really worth the read: http://nyr.kr/9JhWgc"
p68
sS'created_at'
p69
S'Thu Sep 23 21:10:24 +0000 2010'
p70
sS'retweeted'
p71
I00
sS'coordinates'
p72
NsS'in_reply_to_status_id'
p73
NsS'place'
p74
NsS'in_reply_to_screen_name'
p75
NsS'retweet_count'
p76
NsS'geo'
p77
NsS'id'
p78
I25342505053
sa(dp79
S'favorited'
p80
I00
sS'truncated'
p81
I00
sS'text'
p82
S'No one can put it better than the Imam who developed the idea: http://www.nytimes.com/2010/09/08/opinion/08mosque.html?hp #mosque#groundzero'
p83
sS'created_at'
p84
S'Wed Sep 08 13:07:20 +0000 2010'
p85
sS'retweeted'
p86
I00
sS'coordinates'
p87
NsS'in_reply_to_status_id'
p88
NsS'place'
p89
NsS'in_reply_to_screen_name'
p90
NsS'retweet_count'
p91
NsS'geo'
p92
NsS'id'
p93
I23912178498
sa(dp94
S'favorited'
p95
I00
sS'truncated'
p96
I00
sS'text'
p97
S'http://the195.com/northwestern/2010/09/06/america-exporting-our-vices/'
p98
sS'created_at'
p99
S'Tue Sep 07 02:08:47 +0000 2010'
p100
sS'retweeted'
p101
I00
sS'coordinates'
p102
NsS'in_reply_to_status_id'
p103
NsS'place'
p104
NsS'in_reply_to_screen_name'
p105
NsS'retweet_count'
p106
NsS'geo'
p107
NsS'id'
p108
I23197600314
sa(dp109
S'favorited'
p110
I00
sS'truncated'
p111
I00
sS'text'
p112
S'Starting up my blog on @The195 again. Check it out: http://the195.com/northwestern/author/jonahnewman/'
p113
sS'created_at'
p114
S'Sun Aug 29 06:49:57 +0000 2010'
p115
sS'retweeted'
p116
I00
sS'coordinates'
p117
NsS'in_reply_to_status_id'
p118
NsS'place'
p119
NsS'in_reply_to_screen_name'
p120
NsS'retweet_count'
p121
NsS'geo'
p122
NsS'id'
p123
I22418470841
sa(dp124
S'favorited'
p125
I00
sS'truncated'
p126
I00
sS'text'
p127
S'Tom Friedman at his best: http://nyti.ms/c1RGSq'
p128
sS'created_at'
p129
S'Wed Aug 04 18:48:14 +0000 2010'
p130
sS'retweeted'
p131
I00
sS'coordinates'
p132
NsS'in_reply_to_status_id'
p133
NsS'place'
p134
NsS'in_reply_to_screen_name'
p135
NsS'retweet_count'
p136
NsS'geo'
p137
NsS'id'
p138
I20325089311
sa(dp139
S'favorited'
p140
I00
sS'truncated'
p141
I00
sS'text'
p142
S'Thank god for clearer heads prevailing: http://nyti.ms/cOgK0Z'
p143
sS'created_at'
p144
S'Tue Aug 03 17:53:26 +0000 2010'
p145
sS'retweeted'
p146
I00
sS'coordinates'
p147
NsS'in_reply_to_status_id'
p148
NsS'place'
p149
NsS'in_reply_to_screen_name'
p150
NsS'retweet_count'
p151
NsS'geo'
p152
NsS'id'
p153
I20239130617
sa(dp154
S'favorited'
p155
I00
sS'truncated'
p156
I00
sS'text'
p157
S"A really sad sign that we've lost sight of our Jewish--and democratic--values: http://nyti.ms/aZNvoB"
p158
sS'created_at'
p159
S'Mon Aug 02 13:37:22 +0000 2010'
p160
sS'retweeted'
p161
I00
sS'coordinates'
p162
NsS'in_reply_to_status_id'
p163
NsS'place'
p164
NsS'in_reply_to_screen_name'
p165
NsS'retweet_count'
p166
NsS'geo'
p167
NsS'id'
p168
I20139785535
sa(dp169
S'favorited'
p170
I00
sS'truncated'
p171
I00
sS'text'
p172
S'Start a new conversation with your family and friends about #immigration reform - check out this new video: http://seiu.me/conversation #p2'
p173
sS'created_at'
p174
S'Fri Jul 23 14:05:58 +0000 2010'
p175
sS'retweeted'
p176
I00
sS'coordinates'
p177
NsS'in_reply_to_status_id'
p178
NsS'place'
p179
NsS'in_reply_to_screen_name'
p180
NsS'retweet_count'
p181
NsS'geo'
p182
NsS'id'
p183
I19341781275
sa(dp184
S'favorited'
p185
I00
sS'truncated'
p186
I00
sS'text'
p187
S'How do we engage students on #Israel? http://www.nuhillel.org/?q=blog/engaging-israel'
p188
sS'created_at'
p189
S'Mon May 10 01:06:20 +0000 2010'
p190
sS'retweeted'
p191
I00
sS'coordinates'
p192
NsS'in_reply_to_status_id'
p193
NsS'place'
p194
NsS'in_reply_to_screen_name'
p195
NsS'retweet_count'
p196
NsS'geo'
p197
NsS'id'
p198
I13698305107
sa(dp199
S'favorited'
p200
I00
sS'truncated'
p201
I00
sS'text'
p202
S'On memory and #yomhazikaron: http://www.nuhillel.org/?q=blog/memory-part-2-yom-hazikaron. Please comment!'
p203
sS'created_at'
p204
S'Wed Apr 21 05:34:00 +0000 2010'
p205
sS'retweeted'
p206
I00
sS'coordinates'
p207
NsS'in_reply_to_status_id'
p208
NsS'place'
p209
NsS'in_reply_to_screen_name'
p210
NsS'retweet_count'
p211
NsS'geo'
p212
NsS'id'
p213
I12560558475
sa(dp214
S'favorited'
p215
I00
sS'truncated'
p216
I00
sS'text'
p217
S"Northwestern's Black-Jewish Freedom Seder. Read my blog about it: http://www.nuhillel.org/?q=blog/joshua-generation @NorthwesternU"
p218
sS'created_at'
p219
S'Mon Apr 12 00:33:04 +0000 2010'
p220
sS'retweeted'
p221
I00
sS'coordinates'
p222
NsS'in_reply_to_status_id'
p223
NsS'place'
p224
NsS'in_reply_to_screen_name'
p225
NsS'retweet_count'
p226
NsS'geo'
p227
NsS'id'
p228
I12018470375
sa(dp229
S'favorited'
p230
I00
sS'truncated'
p231
I00
sS'text'
p232
S'#passover Thoughts on Passover after a week of rebuilding in New Orleans: http://bit.ly/aiNS6n'
p233
sS'created_at'
p234
S'Tue Mar 30 23:48:02 +0000 2010'
p235
sS'retweeted'
p236
I00
sS'coordinates'
p237
NsS'in_reply_to_status_id'
p238
NsS'place'
p239
NsS'in_reply_to_screen_name'
p240
NsS'retweet_count'
p241
NsS'geo'
p242
NsS'id'
p243
I11335535810
sasS'followers'
p244
(lp245
(dp246
S'id'
p247
I193335048
sS'screen_name'
p248
S'NUinterfaith'
p249
sa(dp250
g247
I191415944
sg248
S'SoydeAlmaden'
p251
sa(dp252
g247
I121477389
sg248
S'abby827'
p253
sa(dp254
g247
I112001477
sg248
S'iconnectchicago'
p255
sa(dp256
g247
I45288197
sg248
S'tracyfuad'
p257
sa(dp258
g247
I32528373
sg248
S'danheif'
p259
sa(dp260
g247
I70184422
sg248
S'Ben_Segal'
p261
sa(dp262
g247
I23036674
sg248
S'iansoy'
p263
sa(dp264
g247
I51481372
sg248
S'NUAEPi'
p265
sa(dp266
g247
I32688417
sg248
S'nbn_tweets'
p267
sa(dp268
g247
I14500104
sg248
S'religion_state'
p269
sa(dp270
g247
I118819119
sg248
S'yourvoiceuw'
p271
sa(dp272
g247
I22997710
sg248
S'philrsquared'
p273
sa(dp274
g247
I30817566
sg248
S'the195'
p275
sa(dp276
g247
I115547481
sg248
S'NUlivingwage'
p277
sa(dp278
g247
I111378530
sg248
S'idreamofsweets'
p279
sa(dp280
g247
I19578604
sg248
S'zzaban'
p281
sa(dp282
g247
I17164414
sg248
S'tminsberg'
p283
sa(dp284
g247
I80499569
sg248
S'gunaratna'
p285
sa(dp286
g247
I18422429
sg248
S'yeldarb367'
p287
sa(dp288
g247
I29321424
sg248
S'zazman'
p289
sa(dp290
g247
I108780480
sg248
S'PPerl'
p291
sa(dp292
g247
I48153790
sg248
S'benlarrison'
p293
sasS'friends'
p294
(lp295
(dp296
g247
I24773177
sg248
S'carr2n'
p297
sa(dp298
g247
I70448977
sg248
S'ruth_messinger'
p299
sa(dp300
g247
I37666026
sg248
S'coachfitz51'
p301
sa(dp302
g247
I20609518
sg248
S'DalaiLama'
p303
sa(dp304
g247
I24905674
sg248
S'SereneSquid'
p305
sa(dp306
g247
I813286
sg248
S'BarackObama'
p307
sa(dp308
g247
I49895610
sg248
S'mikegoldstein1'
p309
sa(dp310
g247
I27173324
sg248
S'NedNedNedNed'
p311
sa(dp312
g247
I187155264
sg248
S'luckyyypeterson'
p313
sa(dp314
g247
I7212562
sg248
S'SouthwestAir'
p315
sa(dp316
g247
I35773039
sg248
S'TheAtlantic'
p317
sa(dp318
g247
I146069752
sg248
S'Lahcenhaddad'
p319
sa(dp320
g247
I41039745
sg248
S'dlinder89'
p321
sa(dp322
g247
I26177337
sg248
S'madsciencetist'
p323
sa(dp324
g247
I16569827
sg248
S'jackdoppelt'
p325
sa(dp326
g247
I112001477
sg248
S'iconnectchicago'
p327
sa(dp328
g247
I181233011
sg248
S'972magazine'
p329
sa(dp330
g247
I114870265
sg248
S'PeterBeinart'
p331
sa(dp332
g247
I89047639
sg248
S'Northwesternmag'
p333
sa(dp334
g247
I23036674
sg248
S'iansoy'
p335
sa(dp336
g247
I43141950
sg248
S'swishes2000'
p337
sa(dp338
g247
I143516614
sg248
S'GrouponNUEv'
p339
sa(dp340
g247
I17671724
sg248
S'Haim_Watzman'
p341
sa(dp342
g247
I33639255
sg248
S'NorthwesternU'
p343
sa(dp344
g247
I18422429
sg248
S'yeldarb367'
p345
sa(dp346
g247
I115547481
sg248
S'NUlivingwage'
p347
sa(dp348
g247
I19666547
sg248
S'evanderrow'
p349
sa(dp350
g247
I49893981
sg248
S'nuss08'
p351
sa(dp352
g247
I22997710
sg248
S'philrsquared'
p353
sa(dp354
g247
I32166235
sg248
S'matherts'
p355
sa(dp356
g247
I41770222
sg248
S'benjamindsinger'
p357
sa(dp358
g247
I50245017
sg248
S'e_wolfkirchner'
p359
sa(dp360
g247
I32528373
sg248
S'danheif'
p361
sa(dp362
g247
I48010142
sg248
S'joshbernick'
p363
sa(dp364
g247
I32688417
sg248
S'nbn_tweets'
p365
sa(dp366
g247
I51481372
sg248
S'NUAEPi'
p367
sa(dp368
g247
I27609381
sg248
S'bradleyburston'
p369
sa(dp370
g247
I19578604
sg248
S'zzaban'
p371
sa(dp372
g247
I17164414
sg248
S'tminsberg'
p373
sa(dp374
g247
I108780480
sg248
S'PPerl'
p375
sa(dp376
g247
I23012995
sg248
S'thedailynu'
p377
sa(dp378
g247
I48153790
sg248
S'benlarrison'
p379
sa(dp380
g247
I29321424
sg248
S'zazman'
p381
sa(dp382
g247
I45288197
sg248
S'tracyfuad'
p383
sa(dp384
g247
I80499569
sg248
S'gunaratna'
p385
sa(dp386
g247
I22411875
sg248
S'nytimesphoto'
p387
sa(dp388
g247
I17327905
sg248
S'tomfriedman'
p389
sa(dp390
g247
I30817566
sg248
S'the195'
p391
sasg248
S'jonahshai'
p392
sS'timestamp'
p393
cdatetime
datetime
p394
(S'\x07\xda\x0b\x06\x141&\t%R'
p395
tp396
Rp397
sa(dp398
g2
(lp399
(dp400
S'favorited'
p401
I00
sS'truncated'
p402
I00
sS'text'
p403
S'These are the coolest siamese twins ever. They share each others thoughts! http://tinyurl.com/2f26vp4 #wtfawesome'
p404
sS'created_at'
p405
S'Sat Nov 06 17:07:37 +0000 2010'
p406
sS'retweeted'
p407
I00
sS'coordinates'
p408
NsS'in_reply_to_status_id'
p409
NsS'place'
p410
NsS'in_reply_to_screen_name'
p411
NsS'retweet_count'
p412
NsS'geo'
p413
NsS'id'
p414
I957487465373696
sa(dp415
S'favorited'
p416
I00
sS'truncated'
p417
I00
sS'text'
p418
S"@dlinder89 I know! This happened to me before I got my new Iowa license. It's bullshit."
p419
sS'created_at'
p420
S'Fri Nov 05 21:08:48 +0000 2010'
p421
sS'retweeted'
p422
I00
sS'coordinates'
p423
NsS'in_reply_to_status_id'
p424
I651929210331136
sS'place'
p425
NsS'in_reply_to_screen_name'
p426
S'dlinder89'
p427
sS'retweet_count'
p428
NsS'geo'
p429
NsS'id'
p430
I655796102758400
sa(dp431
S'favorited'
p432
I00
sS'truncated'
p433
I00
sS'text'
p434
S"#Netflix thinks I'm an iconoclast. #lifeaccomplishment http://twitpic.com/3403mm"
p435
sS'created_at'
p436
S'Fri Nov 05 05:04:56 +0000 2010'
p437
sS'retweeted'
p438
I00
sS'coordinates'
p439
NsS'in_reply_to_status_id'
p440
NsS'place'
p441
NsS'in_reply_to_screen_name'
p442
NsS'retweet_count'
p443
NsS'geo'
p444
NsS'id'
p445
I413229943627776
sa(dp446
S'favorited'
p447
I00
sS'truncated'
p448
I00
sS'text'
p449
S'I do not read the reviews. No, I am not singing for you.'
p450
sS'created_at'
p451
S'Wed Nov 03 19:43:29 +0000 2010'
p452
sS'retweeted'
p453
I00
sS'coordinates'
p454
NsS'in_reply_to_status_id'
p455
NsS'place'
p456
NsS'in_reply_to_screen_name'
p457
NsS'retweet_count'
p458
NsS'geo'
p459
NsS'id'
p460
I29600072643
sa(dp461
S'favorited'
p462
I00
sS'truncated'
p463
I00
sS'text'
p464
S'Old people, please go away so the rest of us can get something done.  #prop19 #everythingelse http://i.imgur.com/w9FV2.gif'
p465
sS'created_at'
p466
S'Wed Nov 03 08:28:55 +0000 2010'
p467
sS'retweeted'
p468
I00
sS'coordinates'
p469
NsS'in_reply_to_status_id'
p470
NsS'place'
p471
NsS'in_reply_to_screen_name'
p472
NsS'retweet_count'
p473
NsS'geo'
p474
NsS'id'
p475
I29552706007
sa(dp476
S'favorited'
p477
I00
sS'truncated'
p478
I00
sS'text'
p479
S"I can't believe the World Series already happened again."
p480
sS'created_at'
p481
S'Tue Nov 02 23:32:41 +0000 2010'
p482
sS'retweeted'
p483
I00
sS'coordinates'
p484
NsS'in_reply_to_status_id'
p485
NsS'place'
p486
NsS'in_reply_to_screen_name'
p487
NsS'retweet_count'
p488
NsS'geo'
p489
NsS'id'
p490
I29517113022
sa(dp491
S'favorited'
p492
I00
sS'truncated'
p493
I00
sS'text'
p494
S'American #Pimp is a fascinating documentary.  The pimp/ho relationship is more multidimensional than I would have thought. #netflix'
p495
sS'created_at'
p496
S'Tue Nov 02 19:30:07 +0000 2010'
p497
sS'retweeted'
p498
I00
sS'coordinates'
p499
NsS'in_reply_to_status_id'
p500
NsS'place'
p501
NsS'in_reply_to_screen_name'
p502
NsS'retweet_count'
p503
NsS'geo'
p504
NsS'id'
p505
I29498688402
sa(dp506
S'favorited'
p507
I00
sS'truncated'
p508
I00
sS'text'
p509
S'Why does Halloween last for three days in adult world? #seriousquestion'
p510
sS'created_at'
p511
S'Mon Nov 01 16:25:40 +0000 2010'
p512
sS'retweeted'
p513
I00
sS'coordinates'
p514
NsS'in_reply_to_status_id'
p515
NsS'place'
p516
NsS'in_reply_to_screen_name'
p517
NsS'retweet_count'
p518
NsS'geo'
p519
NsS'id'
p520
I29386846411
sa(dp521
S'favorited'
p522
I00
sS'truncated'
p523
I00
sS'text'
p524
S"Southtown girls won't blow you away, but you know that they'll stay. #theholdsteady"
p525
sS'created_at'
p526
S'Mon Nov 01 03:59:55 +0000 2010'
p527
sS'retweeted'
p528
I00
sS'coordinates'
p529
NsS'in_reply_to_status_id'
p530
NsS'place'
p531
NsS'in_reply_to_screen_name'
p532
NsS'retweet_count'
p533
NsS'geo'
p534
NsS'id'
p535
I29341087364
sasg244
(lp536
(dp537
g247
I96855457
sg248
S'ChicagoCLEAR'
p538
sa(dp539
g247
I74278144
sg248
S'quotestanhope'
p540
sa(dp541
g247
I132575607
sg248
S'benberkman'
p542
sa(dp543
g247
I15909188
sg248
S'RobertHarbinger'
p544
sa(dp545
g247
I16358034
sg248
S'MrMeursault'
p546
sa(dp547
g247
I24043230
sg248
S'nathalie_bfr'
p548
sa(dp549
g247
I31318119
sg248
S'pclanc'
p550
sa(dp551
g247
I49893981
sg248
S'nuss08'
p552
sa(dp553
g247
I166244064
sg248
S'eco_mama'
p554
sa(dp555
g247
I57777231
sg248
S'Campagnola1'
p556
sa(dp557
g247
I31069670
sg248
S'ginsengtv'
p558
sa(dp559
g247
I17937377
sg248
S'JordanHH'
p560
sa(dp561
g247
I48153790
sg248
S'benlarrison'
p562
sa(dp563
g247
I26177337
sg248
S'madsciencetist'
p564
sa(dp565
g247
I50076354
sg248
S'puredwts'
p566
sa(dp567
g247
I24905674
sg248
S'SereneSquid'
p568
sa(dp569
g247
I119288603
sg248
S'WaukeganTickets'
p570
sa(dp571
g247
I128355630
sg248
S'AmyAndronicus'
p572
sa(dp573
g247
I19126738
sg248
S'rizzre'
p574
sa(dp575
g247
I41039745
sg248
S'dlinder89'
p576
sa(dp577
g247
I62320784
sg248
S'tipm'
p578
sa(dp579
g247
I49895610
sg248
S'mikegoldstein1'
p580
sa(dp581
g247
I50346973
sg248
S'GreenUSC'
p582
sa(dp583
g247
I66504422
sg248
S'StudentRushNYC'
p584
sa(dp585
g247
I21549088
sg248
S'KillianWells'
p586
sa(dp587
g247
I31478923
sg248
S'fbmyers'
p588
sa(dp589
g247
I28579429
sg248
S'cckeevan'
p590
sa(dp591
g247
I48420324
sg248
S'Britt_Husenica'
p592
sa(dp593
g247
I16799528
sg248
S'daakardior'
p594
sa(dp595
g247
I17494875
sg248
S'jracineui'
p596
sa(dp597
g247
I23877430
sg248
S'superdanger'
p598
sa(dp599
g247
I125612929
sg248
S'UnopenedCatBox'
p600
sa(dp601
g247
I47842742
sg248
S'AllisonStickley'
p602
sa(dp603
g247
I128424946
sg248
S'JuneSetFireMark'
p604
sa(dp605
g247
I2933441
sg248
S'programnature'
p606
sa(dp607
g247
I23270818
sg248
S'ryanrocks2323'
p608
sa(dp609
g247
I48808728
sg248
S'UnionPizzeria'
p610
sa(dp611
g247
I20018121
sg248
S'keyeric'
p612
sa(dp613
g247
I56531362
sg248
S'HeartMachine'
p614
sa(dp615
g247
I24994991
sg248
S'mhlmagazine'
p616
sa(dp617
g247
I120671445
sg248
S'ratterbury'
p618
sa(dp619
g247
I23036674
sg248
S'iansoy'
p620
sa(dp621
g247
I111129574
sg248
S'KendraLarson211'
p622
sa(dp623
g247
I37019141
sg248
S'kumaramangalam'
p624
sa(dp625
g247
I30749582
sg248
S'Indianfoodgeek'
p626
sa(dp627
g247
I14237364
sg248
S'emmzzuh'
p628
sa(dp629
g247
I46569463
sg248
S'Lindzerb'
p630
sa(dp631
g247
I48265052
sg248
S'GREsupport'
p632
sa(dp633
g247
I143127993
sg248
S'AdultNotes'
p634
sa(dp635
g247
I61788025
sg248
S'omgyouresexy'
p636
sa(dp637
g247
I33593621
sg248
S'floatyourdoor'
p638
sa(dp639
g247
I49776969
sg248
S'bheyer'
p640
sa(dp641
g247
I159166582
sg248
S'StudyatEARTH'
p642
sa(dp643
g247
I14618133
sg248
S'thekellyc'
p644
sa(dp645
g247
I62230371
sg248
S'upperq'
p646
sa(dp647
g247
I24708468
sg248
S'nate_nims'
p648
sa(dp649
g247
I16489986
sg248
S'M_Somerville'
p650
sa(dp651
g247
I68774658
sg248
S'johnelang87'
p652
sa(dp653
g247
I14188368
sg248
S'drumdog00'
p654
sa(dp655
g247
I153618986
sg248
S'jessholly'
p656
sa(dp657
g247
I18995531
sg248
S'MitsubishiCNC'
p658
sa(dp659
g247
I42664174
sg248
S'dianamnielsen'
p660
sa(dp661
g247
I50245017
sg248
S'e_wolfkirchner'
p662
sa(dp663
g247
I65688828
sg248
S'CP_Chicago'
p664
sa(dp665
g247
I25512079
sg248
S'Genyoga'
p666
sa(dp667
g247
I28500959
sg248
S'iamtaylorwebber'
p668
sa(dp669
g247
I184305685
sg248
S'neverakwitter'
p670
sa(dp671
g247
I116452521
sg248
S'MAMAISONhotels'
p672
sa(dp673
g247
I14567405
sg248
S'round_my_world'
p674
sa(dp675
g247
I33077967
sg248
S'chutneyjoes'
p676
sa(dp677
g247
I204670337
sg248
S'davemiller32'
p678
sa(dp679
g247
I56092171
sg248
S'prince783'
p680
sa(dp681
g247
I63930019
sg248
S'ryan_yeager'
p682
sa(dp683
g247
I49894515
sg248
S'JennisTheMenace'
p684
sa(dp685
g247
I51020580
sg248
S'blonde_eag40330'
p686
sa(dp687
g247
I199429191
sg248
S'MathewAccetta97'
p688
sa(dp689
g247
I23387344
sg248
S'samosacabana'
p690
sa(dp691
g247
I51856721
sg248
S'french_fun3'
p692
sasg294
(lp693
(dp694
g247
I23027237
sg248
S'nickkroll'
p695
sa(dp696
g247
I31206614
sg248
S'Jesus_M_Christ'
p697
sa(dp698
g247
I21734298
sg248
S'frankiemuniz'
p699
sa(dp700
g247
I15147397
sg248
S'birbigs'
p701
sa(dp702
g247
I16303106
sg248
S'StephenAtHome'
p703
sa(dp704
g247
I33655796
sg248
S'mattberkman'
p705
sa(dp706
g247
I147326985
sg248
S'jlyons_SportMBA'
p707
sa(dp708
g247
I15209649
sg248
S'travisjcross'
p709
sa(dp710
g247
I26056708
sg248
S'charliemcdowell'
p711
sa(dp712
g247
I47468360
sg248
S'chicagodiner'
p713
sa(dp714
g247
I132229563
sg248
S'hummingbirdtogo'
p715
sa(dp716
g247
I184305685
sg248
S'neverakwitter'
p717
sa(dp718
g247
I136879221
sg248
S'joindiaspora'
p719
sa(dp720
g247
I17937377
sg248
S'JordanHH'
p721
sa(dp722
g247
I161760542
sg248
S'AstroRobonaut'
p723
sa(dp724
g247
I148529707
sg248
S'RBReich'
p725
sa(dp726
g247
I113207769
sg248
S'fitz296'
p727
sa(dp728
g247
I6539592
sg248
S'JimGaffigan'
p729
sa(dp730
g247
I142818316
sg248
S'feministhulk'
p731
sa(dp732
g247
I14927297
sg248
S'adbusters'
p733
sa(dp734
g247
I24708468
sg248
S'nate_nims'
p735
sa(dp736
g247
I145753059
sg248
S'BPGlobalPR'
p737
sa(dp738
g247
I18283526
sg248
S'LindseyKrat'
p739
sa(dp740
g247
I120671445
sg248
S'ratterbury'
p741
sa(dp742
g247
I16489986
sg248
S'M_Somerville'
p743
sa(dp744
g247
I128424946
sg248
S'JuneSetFireMark'
p745
sa(dp746
g247
I51120621
sg248
S'KingOfTheCosmos'
p747
sa(dp748
g247
I119134771
sg248
S'CleverAccounts'
p749
sa(dp750
g247
I7040932
sg248
S'zappos'
p751
sa(dp752
g247
I50245017
sg248
S'e_wolfkirchner'
p753
sa(dp754
g247
I132575607
sg248
S'benberkman'
p755
sa(dp756
g247
I82789484
sg248
S'JoeMande'
p757
sa(dp758
g247
I31318119
sg248
S'pclanc'
p759
sa(dp760
g247
I14348594
sg248
S'hodgman'
p761
sa(dp762
g247
I17220934
sg248
S'algore'
p763
sa(dp764
g247
I18485795
sg248
S'80miles'
p765
sa(dp766
g247
I74278144
sg248
S'quotestanhope'
p767
sa(dp768
g247
I19126738
sg248
S'rizzre'
p769
sa(dp770
g247
I115485051
sg248
S'ConanOBrien'
p771
sa(dp772
g247
I28500959
sg248
S'iamtaylorwebber'
p773
sa(dp774
g247
I16656254
sg248
S'RAYGUNshirts'
p775
sa(dp776
g247
I24043230
sg248
S'nathalie_bfr'
p777
sa(dp778
g247
I23877430
sg248
S'superdanger'
p779
sa(dp780
g247
I17494875
sg248
S'jracineui'
p781
sa(dp782
g247
I16302651
sg248
S'EugeneMirman'
p783
sa(dp784
g247
I15732712
sg248
S'elliottgarlock'
p785
sa(dp786
g247
I16358034
sg248
S'MrMeursault'
p787
sa(dp788
g247
I14237364
sg248
S'emmzzuh'
p789
sa(dp790
g247
I62581962
sg248
S'shitmydadsays'
p791
sa(dp792
g247
I18078296
sg248
S'marcusmonroe'
p793
sa(dp794
g247
I47842742
sg248
S'AllisonStickley'
p795
sa(dp796
g247
I14618133
sg248
S'thekellyc'
p797
sa(dp798
g247
I63930019
sg248
S'ryan_yeager'
p799
sa(dp800
g247
I26177337
sg248
S'madsciencetist'
p801
sa(dp802
g247
I14775787
sg248
S'Worldchanging'
p803
sa(dp804
g247
I19669100
sg248
S'bengeerts'
p805
sa(dp806
g247
I47999027
sg248
S'hanasamuels'
p807
sa(dp808
g247
I51893110
sg248
S'MissHilbrekirk'
p809
sa(dp810
g247
I59577803
sg248
S'angelaroselovel'
p811
sa(dp812
g247
I48420324
sg248
S'Britt_Husenica'
p813
sa(dp814
g247
I33593621
sg248
S'floatyourdoor'
p815
sa(dp816
g247
I21549088
sg248
S'KillianWells'
p817
sa(dp818
g247
I61788025
sg248
S'omgyouresexy'
p819
sa(dp820
g247
I28579429
sg248
S'cckeevan'
p821
sa(dp822
g247
I49893981
sg248
S'nuss08'
p823
sa(dp824
g247
I23036674
sg248
S'iansoy'
p825
sa(dp826
g247
I49776969
sg248
S'bheyer'
p827
sa(dp828
g247
I42664174
sg248
S'dianamnielsen'
p829
sa(dp830
g247
I24905674
sg248
S'SereneSquid'
p831
sa(dp832
g247
I48153790
sg248
S'benlarrison'
p833
sa(dp834
g247
I48808728
sg248
S'UnionPizzeria'
p835
sa(dp836
g247
I46569463
sg248
S'Lindzerb'
p837
sa(dp838
g247
I49894515
sg248
S'JennisTheMenace'
p839
sa(dp840
g247
I49895610
sg248
S'mikegoldstein1'
p841
sa(dp842
g247
I41039745
sg248
S'dlinder89'
p843
sa(dp844
g247
I26857218
sg248
S'unionpizza'
p845
sa(dp846
g247
I2933441
sg248
S'programnature'
p847
sa(dp848
g247
I17853760
sg248
S'robcorddry'
p849
sa(dp850
g247
I813286
sg248
S'BarackObama'
p851
sa(dp852
g247
I26323017
sg248
S'DAREALBIZMARKIE'
p853
sa(dp854
g247
I31478923
sg248
S'fbmyers'
p855
sa(dp856
g247
I6489922
sg248
S'mistermarkdavis'
p857
sasg248
S'rootsreachdown'
p858
sg393
g394
(S'\x07\xda\x0b\x06\x141-\x0e>\xd0'
p859
tp860
Rp861
sa(dp862
g2
(lp863
(dp864
S'favorited'
p865
I00
sS'truncated'
p866
I00
sS'text'
p867
S'See our commercials!\nhttp://bit.ly/8dMW28\nhttp://bit.ly/7jfH5Q'
p868
sS'created_at'
p869
S'Fri Dec 18 02:34:18 +0000 2009'
p870
sS'retweeted'
p871
I00
sS'coordinates'
p872
NsS'in_reply_to_status_id'
p873
NsS'place'
p874
NsS'in_reply_to_screen_name'
p875
NsS'retweet_count'
p876
NsS'geo'
p877
NsS'id'
p878
I6783532665
sa(dp879
S'favorited'
p880
I00
sS'truncated'
p881
I00
sS'text'
p882
S'CLEAR is here!   CLEAR uses a 4G WIMAX technology, so your connection is faster then most DSL and cable.   4 Xs faster.'
p883
sS'created_at'
p884
S'Wed Dec 16 02:53:04 +0000 2009'
p885
sS'retweeted'
p886
I00
sS'coordinates'
p887
NsS'in_reply_to_status_id'
p888
NsS'place'
p889
NsS'in_reply_to_screen_name'
p890
NsS'retweet_count'
p891
NsS'geo'
p892
NsS'id'
p893
I6717520296
sasg244
(lp894
(dp895
g247
I22777396
sg248
S'EricWallor'
p896
sa(dp897
g247
I86836975
sg248
S'WebAdMetrics'
p898
sa(dp899
g247
I62424783
sg248
S'3HeartsBoutique'
p900
sa(dp901
g247
I202998490
sg248
S'ZwifferApps'
p902
sa(dp903
g247
I74745052
sg248
S'ICAcademy'
p904
sa(dp905
g247
I17313051
sg248
S'BergerSTL'
p906
sa(dp907
g247
I200558578
sg248
S'phatzplace'
p908
sa(dp909
g247
I75507298
sg248
S'fusionoutrage'
p910
sa(dp911
g247
I50427355
sg248
S'provenblue'
p912
sa(dp913
g247
I72863013
sg248
S'windycitynews'
p914
sa(dp915
g247
I171127198
sg248
S'AramiChicago'
p916
sa(dp917
g247
I25882131
sg248
S'faitharmour'
p918
sa(dp919
g247
I15886108
sg248
S'wheels847'
p920
sa(dp921
g247
I174778638
sg248
S'NetezzaRetail'
p922
sa(dp923
g247
I64517508
sg248
S'goodkarna'
p924
sa(dp925
g247
I12710712
sg248
S'sueandsteve'
p926
sa(dp927
g247
I48857990
sg248
S'Synapsisrock'
p928
sa(dp929
g247
I171173253
sg248
S'OakStreetBeach'
p930
sa(dp931
g247
I142880956
sg248
S'DTLrooftop'
p932
sa(dp933
g247
I33115365
sg248
S'miltickit'
p934
sa(dp935
g247
I16442779
sg248
S'mindyfaber'
p936
sa(dp937
g247
I17466971
sg248
S'DianeRayfield'
p938
sa(dp939
g247
I24462007
sg248
S'VinceLasalvia'
p940
sa(dp941
g247
I153451480
sg248
S'mercaditoCHI'
p942
sa(dp943
g247
I63609251
sg248
S'bishop907'
p944
sa(dp945
g247
I150521075
sg248
S'willboyd4senate'
p946
sa(dp947
g247
I46381467
sg248
S'patk1646'
p948
sa(dp949
g247
I85917504
sg248
S'Rosatis_Pizza'
p950
sa(dp951
g247
I23432265
sg248
S'Mikejustin'
p952
sa(dp953
g247
I18049956
sg248
S'twelliot'
p954
sa(dp955
g247
I95483498
sg248
S'HealthTipoftheD'
p956
sa(dp957
g247
I46568576
sg248
S'cswsolutions'
p958
sa(dp959
g247
I160627422
sg248
S'cleardealer'
p960
sa(dp961
g247
I60985426
sg248
S'HiltonILR'
p962
sa(dp963
g247
I153390114
sg248
S'_boydza_'
p964
sa(dp965
g247
I27511328
sg248
S'Flounders'
p966
sa(dp967
g247
I143533860
sg248
S'PerilloCenter'
p968
sa(dp969
g247
I139533918
sg248
S'cubshotdeals'
p970
sa(dp971
g247
I151152738
sg248
S'DoDoListingscom'
p972
sa(dp973
g247
I43350080
sg248
S'BizLawyers'
p974
sa(dp975
g247
I148659623
sg248
S'xxxstrippers'
p976
sa(dp977
g247
I25053860
sg248
S'ramegavi'
p978
sa(dp979
g247
I90686578
sg248
S'ChicagoSolution'
p980
sa(dp981
g247
I25149383
sg248
S'shellyfromshaws'
p982
sa(dp983
g247
I27181785
sg248
S'FreedomFounders'
p984
sa(dp985
g247
I146671957
sg248
S'WMarketingTV'
p986
sa(dp987
g247
I99564740
sg248
S'iQSDkV'
p988
sa(dp989
g247
I145840965
sg248
S'PsoriasisChi'
p990
sa(dp991
g247
I145764822
sg248
S'BarLouieSkokie'
p992
sa(dp993
g247
I137394097
sg248
S'KilowatKing'
p994
sa(dp995
g247
I87845604
sg248
S'Discovery_Centr'
p996
sa(dp997
g247
I141748281
sg248
S'Houston4G'
p998
sa(dp999
g247
I98777477
sg248
S'RE_STOCK'
p1000
sa(dp1001
g247
I72666988
sg248
S'robkruk'
p1002
sa(dp1003
g247
I137119872
sg248
S'FultonsRiver'
p1004
sa(dp1005
g247
I7693022
sg248
S'blakeroyer'
p1006
sa(dp1007
g247
I25020246
sg248
S'GrandOverview'
p1008
sa(dp1009
g247
I34015313
sg248
S'vanessadaniele'
p1010
sa(dp1011
g247
I95150573
sg248
S'HOUSEHASHEART'
p1012
sa(dp1013
g247
I136509047
sg248
S'ChiTownAds'
p1014
sa(dp1015
g247
I26296745
sg248
S'dustbunny76'
p1016
sa(dp1017
g247
I136043309
sg248
S'BRANDIRTUCKER'
p1018
sa(dp1019
g247
I135743806
sg248
S'metro9999'
p1020
sa(dp1021
g247
I117636962
sg248
S'WansasTequila'
p1022
sa(dp1023
g247
I128293321
sg248
S'brandipizza'
p1024
sa(dp1025
g247
I28216042
sg248
S'stevejpulaski'
p1026
sa(dp1027
g247
I124479965
sg248
S'genie_dream'
p1028
sa(dp1029
g247
I85032215
sg248
S'cubsweather'
p1030
sa(dp1031
g247
I15326572
sg248
S'mikemayhew'
p1032
sa(dp1033
g247
I129473421
sg248
S'LockYourSpot360'
p1034
sa(dp1035
g247
I14519028
sg248
S'VZWCarolyn'
p1036
sa(dp1037
g247
I122408877
sg248
S'FreeADonline'
p1038
sa(dp1039
g247
I27755195
sg248
S'seowheel'
p1040
sa(dp1041
g247
I124432334
sg248
S'ToysAndDolls'
p1042
sa(dp1043
g247
I121415674
sg248
S'patriotmaid1'
p1044
sa(dp1045
g247
I124343213
sg248
S'NEFFofChicago'
p1046
sa(dp1047
g247
I117455493
sg248
S'daysbridgeview'
p1048
sa(dp1049
g247
I126415952
sg248
S'infopd'
p1050
sa(dp1051
g247
I111181627
sg248
S'popupchicago'
p1052
sa(dp1053
g247
I13082862
sg248
S'mattbacak'
p1054
sa(dp1055
g247
I88051804
sg248
S'BigCityWimax'
p1056
sa(dp1057
g247
I123992372
sg248
S'sprintretailer'
p1058
sa(dp1059
g247
I112932343
sg248
S'oldtowntony'
p1060
sa(dp1061
g247
I124052764
sg248
S'100DollarsDaily'
p1062
sa(dp1063
g247
I18217828
sg248
S'VisitLakeCounty'
p1064
sa(dp1065
g247
I61866277
sg248
S'rockwoodplace'
p1066
sa(dp1067
g247
I107134149
sg248
S'jpsexylounge'
p1068
sa(dp1069
g247
I14118706
sg248
S'helenelaurence'
p1070
sa(dp1071
g247
I20201366
sg248
S'graphicsms'
p1072
sa(dp1073
g247
I26430649
sg248
S'jpsintheflood'
p1074
sa(dp1075
g247
I20643110
sg248
S'V103'
p1076
sa(dp1077
g247
I26807991
sg248
S'ChiPhotoWalks'
p1078
sa(dp1079
g247
I113128298
sg248
S'bestmlmtrainer'
p1080
sa(dp1081
g247
I119076905
sg248
S'Lshire_Marriott'
p1082
sa(dp1083
g247
I26071813
sg248
S'coffeeluvinmom'
p1084
sa(dp1085
g247
I82603051
sg248
S'vsailu'
p1086
sa(dp1087
g247
I41845834
sg248
S'dasuperfans'
p1088
sa(dp1089
g247
I95260702
sg248
S'theptackgroup'
p1090
sa(dp1091
g247
I44709167
sg248
S'MomsWorkAtHome'
p1092
sa(dp1093
g247
I94454137
sg248
S'beerrecipes'
p1094
sasg294
(lp1095
(dp1096
g247
I1324091
sg248
S'johnz'
p1097
sa(dp1098
g247
I17313051
sg248
S'BergerSTL'
p1099
sa(dp1100
g247
I38494442
sg248
S'bfletcher11'
p1101
sa(dp1102
g247
I54798875
sg248
S'Johnnnymac66'
p1103
sa(dp1104
g247
I15693174
sg248
S'joeknaack'
p1105
sa(dp1106
g247
I73185551
sg248
S'JamieRudman'
p1107
sa(dp1108
g247
I26431379
sg248
S'superdawg1'
p1109
sa(dp1110
g247
I46730291
sg248
S'ChicagoMal'
p1111
sa(dp1112
g247
I29515073
sg248
S'SloanCelette'
p1113
sa(dp1114
g247
I17161249
sg248
S'jaybeaton'
p1115
sa(dp1116
g247
I23725720
sg248
S'jonanthone'
p1117
sa(dp1118
g247
I86319762
sg248
S'ThePigChicago'
p1119
sa(dp1120
g247
I16638349
sg248
S'freshsignals'
p1121
sa(dp1122
g247
I20825982
sg248
S'SMBchicago'
p1123
sa(dp1124
g247
I23440889
sg248
S'casonye'
p1125
sa(dp1126
g247
I22704401
sg248
S'mswelsh'
p1127
sa(dp1128
g247
I25217077
sg248
S'viedelicieuse'
p1129
sa(dp1130
g247
I22721927
sg248
S'Gourmetlawyer'
p1131
sa(dp1132
g247
I20713887
sg248
S'jennyeclec'
p1133
sa(dp1134
g247
I52180223
sg248
S'HomerTeaParty'
p1135
sa(dp1136
g247
I41209211
sg248
S'jongery'
p1137
sa(dp1138
g247
I18310547
sg248
S'tweetchi'
p1139
sa(dp1140
g247
I16364536
sg248
S'BillDaley'
p1141
sa(dp1142
g247
I16298036
sg248
S'cheapwinefinder'
p1143
sa(dp1144
g247
I15158464
sg248
S'williger'
p1145
sa(dp1146
g247
I94454137
sg248
S'beerrecipes'
p1147
sa(dp1148
g247
I65936987
sg248
S'SheffieldsBar'
p1149
sa(dp1150
g247
I26430649
sg248
S'jpsintheflood'
p1151
sa(dp1152
g247
I14797409
sg248
S'DavidEastman'
p1153
sa(dp1154
g247
I21591743
sg248
S'BobBlahBlawg'
p1155
sa(dp1156
g247
I5530312
sg248
S'seanmbaker'
p1157
sa(dp1158
g247
I21339648
sg248
S'BavarianLodge'
p1159
sa(dp1160
g247
I15780208
sg248
S'jilljaracz'
p1161
sa(dp1162
g247
I16623322
sg248
S'loudnate'
p1163
sa(dp1164
g247
I3573371
sg248
S'vanessajeanne'
p1165
sa(dp1166
g247
I15741995
sg248
S'katyresop'
p1167
sa(dp1168
g247
I14364050
sg248
S'brian_miller'
p1169
sa(dp1170
g247
I14193557
sg248
S'beerchemist'
p1171
sa(dp1172
g247
I72561942
sg248
S'TheCookingExpo'
p1173
sa(dp1174
g247
I16103918
sg248
S'BeerPrincess'
p1175
sa(dp1176
g247
I18196758
sg248
S'nickdpi'
p1177
sa(dp1178
g247
I15809772
sg248
S'subwayalumni'
p1179
sa(dp1180
g247
I36394448
sg248
S'paramountroom'
p1181
sa(dp1182
g247
I20010918
sg248
S'trdunn'
p1183
sa(dp1184
g247
I7962642
sg248
S'Coatney'
p1185
sa(dp1186
g247
I27759473
sg248
S'chicagozombie'
p1187
sa(dp1188
g247
I30284683
sg248
S'risquecafe'
p1189
sa(dp1190
g247
I15007742
sg248
S'DwightKoop'
p1191
sa(dp1192
g247
I27721452
sg248
S'jimbinder'
p1193
sa(dp1194
g247
I41485260
sg248
S'hawknut'
p1195
sa(dp1196
g247
I14594204
sg248
S'LWatkins84'
p1197
sa(dp1198
g247
I18654833
sg248
S'SmallBarDst'
p1199
sa(dp1200
g247
I17531081
sg248
S'mcleger'
p1201
sa(dp1202
g247
I16834174
sg248
S'sarahhuska'
p1203
sa(dp1204
g247
I22978397
sg248
S'brewmann'
p1205
sa(dp1206
g247
I7043692
sg248
S'specialKevin'
p1207
sa(dp1208
g247
I49653762
sg248
S'piecechicago'
p1209
sa(dp1210
g247
I12897812
sg248
S'JamiGibbs'
p1211
sa(dp1212
g247
I19784031
sg248
S'DawnMcKenzie'
p1213
sa(dp1214
g247
I27091768
sg248
S'dulcecalor'
p1215
sa(dp1216
g247
I22163353
sg248
S'FlossmoorBrewCo'
p1217
sa(dp1218
g247
I13028322
sg248
S'craignewman'
p1219
sa(dp1220
g247
I17858590
sg248
S'BYOBChicago'
p1221
sa(dp1222
g247
I5743202
sg248
S'anhalt'
p1223
sa(dp1224
g247
I14861679
sg248
S'rangelie'
p1225
sa(dp1226
g247
I15884918
sg248
S'drinksdearborn'
p1227
sa(dp1228
g247
I55324729
sg248
S'reach4wealth2'
p1229
sa(dp1230
g247
I95260702
sg248
S'theptackgroup'
p1231
sa(dp1232
g247
I41845834
sg248
S'dasuperfans'
p1233
sa(dp1234
g247
I28470296
sg248
S'desireekoh13'
p1235
sa(dp1236
g247
I16435731
sg248
S'MattBowen41'
p1237
sa(dp1238
g247
I10842552
sg248
S'beerinator'
p1239
sa(dp1240
g247
I16566153
sg248
S'huma_rashid'
p1241
sa(dp1242
g247
I33675098
sg248
S'SamsWines'
p1243
sa(dp1244
g247
I15281404
sg248
S'mikepilarz'
p1245
sa(dp1246
g247
I10788392
sg248
S'AllynPaul'
p1247
sa(dp1248
g247
I27511328
sg248
S'Flounders'
p1249
sa(dp1250
g247
I21677853
sg248
S'BeerUniverse'
p1251
sa(dp1252
g247
I8769212
sg248
S'AmberCadabra'
p1253
sa(dp1254
g247
I29563107
sg248
S'gohumanbeings'
p1255
sa(dp1256
g247
I80921429
sg248
S'TrippleD3000'
p1257
sa(dp1258
g247
I21981708
sg248
S'mmitch59'
p1259
sa(dp1260
g247
I45237151
sg248
S'jtweith'
p1261
sa(dp1262
g247
I67035360
sg248
S'Elwood311'
p1263
sa(dp1264
g247
I70167344
sg248
S'captainwow2300'
p1265
sa(dp1266
g247
I46685285
sg248
S'timryan123'
p1267
sa(dp1268
g247
I53181209
sg248
S'TwOShOtSnOnE'
p1269
sa(dp1270
g247
I49479147
sg248
S'Rangersfan88'
p1271
sa(dp1272
g247
I21832656
sg248
S'Fentonsfinest74'
p1273
sa(dp1274
g247
I20932139
sg248
S'soxgrl1020'
p1275
sa(dp1276
g247
I33406119
sg248
S'softballplaya22'
p1277
sa(dp1278
g247
I74210248
sg248
S'shinman24'
p1279
sa(dp1280
g247
I26569031
sg248
S'proos2'
p1281
sa(dp1282
g247
I25201261
sg248
S'lilmama44'
p1283
sa(dp1284
g247
I49351112
sg248
S'jmj540'
p1285
sa(dp1286
g247
I83760949
sg248
S'LVAllStar'
p1287
sa(dp1288
g247
I75627717
sg248
S'stazrulez'
p1289
sa(dp1290
g247
I41287956
sg248
S'Bella1912'
p1291
sa(dp1292
g247
I102110423
sg248
S'CSNMooney'
p1293
sa(dp1294
g247
I55703097
sg248
S'Antoine1293'
p1295
sasg248
g538
sg393
g394
(S'\x07\xda\x0b\x06\x1417\x02:5'
p1296
tp1297
Rp1298
sa(dp1299
g2
(lp1300
(dp1301
S'favorited'
p1302
I00
sS'truncated'
p1303
I00
sS'text'
p1304
S'No teacher will ever tell you that you would be cut out to make a great porn star or illegal arms merchant.'
p1305
sS'created_at'
p1306
S'Sat Nov 06 14:47:34 +0000 2010'
p1307
sS'retweeted'
p1308
I00
sS'coordinates'
p1309
NsS'in_reply_to_status_id'
p1310
NsS'place'
p1311
NsS'in_reply_to_screen_name'
p1312
NsS'retweet_count'
p1313
NsS'geo'
p1314
NsS'id'
p1315
I922242783379456
sa(dp1316
S'favorited'
p1317
I00
sS'truncated'
p1318
I00
sS'text'
p1319
S"It boils down to 'old fucks vote' and that's the problem with this country ... old fucks have nothing to do but judge you and vote."
p1320
sS'created_at'
p1321
S'Fri Nov 05 15:47:08 +0000 2010'
p1322
sS'retweeted'
p1323
I00
sS'coordinates'
p1324
NsS'in_reply_to_status_id'
p1325
NsS'place'
p1326
NsS'in_reply_to_screen_name'
p1327
NsS'retweet_count'
p1328
NsS'geo'
p1329
NsS'id'
p1330
I574844655640576
sa(dp1331
S'favorited'
p1332
I00
sS'truncated'
p1333
I00
sS'text'
p1334
S'Man, it just cost me five dollars to beat my own meat ... God bless the United States of America.'
p1335
sS'created_at'
p1336
S'Thu Nov 04 15:43:01 +0000 2010'
p1337
sS'retweeted'
p1338
I00
sS'coordinates'
p1339
NsS'in_reply_to_status_id'
p1340
NsS'place'
p1341
NsS'in_reply_to_screen_name'
p1342
NsS'retweet_count'
p1343
NsS'geo'
p1344
NsS'id'
p1345
I29677675234
sa(dp1346
S'favorited'
p1347
I00
sS'truncated'
p1348
I00
sS'text'
p1349
S"She's not going to be whining about taking it in the ass if she has a big hunk of metal in her snatch."
p1350
sS'created_at'
p1351
S'Wed Nov 03 15:18:50 +0000 2010'
p1352
sS'retweeted'
p1353
I00
sS'coordinates'
p1354
NsS'in_reply_to_status_id'
p1355
NsS'place'
p1356
NsS'in_reply_to_screen_name'
p1357
NsS'retweet_count'
p1358
NsS'geo'
p1359
NsS'id'
p1360
I29580568310
sa(dp1361
S'favorited'
p1362
I00
sS'truncated'
p1363
I00
sS'text'
p1364
S'You want to help mother earth try sodomy; sodomy is eco friendly and abortion is green.'
p1365
sS'created_at'
p1366
S'Tue Nov 02 14:50:24 +0000 2010'
p1367
sS'retweeted'
p1368
I00
sS'coordinates'
p1369
NsS'in_reply_to_status_id'
p1370
NsS'in_reply_to_screen_name'
p1371
NsS'place'
p1372
NsS'retweet_count'
p1373
NsS'geo'
p1374
NsS'id'
p1375
I29476641335
sa(dp1376
S'favorited'
p1377
I00
sS'truncated'
p1378
I00
sS'text'
p1379
S'Sex is a very narrow avenue; you only have so many holes and parts, and so eventually you run out of things to do.'
p1380
sS'created_at'
p1381
S'Mon Nov 01 16:08:02 +0000 2010'
p1382
sS'retweeted'
p1383
I00
sS'coordinates'
p1384
NsS'in_reply_to_status_id'
p1385
NsS'in_reply_to_screen_name'
p1386
NsS'place'
p1387
NsS'retweet_count'
p1388
NsS'geo'
p1389
NsS'id'
p1390
I29385397270
sa(dp1391
S'favorited'
p1392
I00
sS'truncated'
p1393
I00
sS'text'
p1394
S'Before modern medicine, would pussies just generally rot up inside you and fall out of you like spoiled oysters on the sidewalk?'
p1395
sS'created_at'
p1396
S'Sun Oct 31 16:25:33 +0000 2010'
p1397
sS'retweeted'
p1398
I00
sS'coordinates'
p1399
NsS'in_reply_to_status_id'
p1400
NsS'place'
p1401
NsS'in_reply_to_screen_name'
p1402
NsS'retweet_count'
p1403
NsS'geo'
p1404
NsS'id'
p1405
I29291696065
sa(dp1406
S'favorited'
p1407
I00
sS'truncated'
p1408
I00
sS'text'
p1409
S"I like a girl who will put it in her own ass now and again; you don't even have to finagle the deal."
p1410
sS'created_at'
p1411
S'Sat Oct 30 13:45:09 +0000 2010'
p1412
sS'retweeted'
p1413
I00
sS'coordinates'
p1414
NsS'in_reply_to_status_id'
p1415
NsS'place'
p1416
NsS'in_reply_to_screen_name'
p1417
NsS'retweet_count'
p1418
NsS'geo'
p1419
NsS'id'
p1420
I29184371238
sa(dp1421
S'favorited'
p1422
I00
sS'truncated'
p1423
I00
sS'text'
p1424
S"He's my usual type of fan ... a school shooter who didn't have bullets and now he's all awkward and alone."
p1425
sS'created_at'
p1426
S'Fri Oct 29 15:05:26 +0000 2010'
p1427
sS'retweeted'
p1428
I00
sS'coordinates'
p1429
NsS'in_reply_to_status_id'
p1430
NsS'place'
p1431
NsS'in_reply_to_screen_name'
p1432
NsS'retweet_count'
p1433
NsS'geo'
p1434
NsS'id'
p1435
I29096172714
sa(dp1436
S'favorited'
p1437
I00
sS'truncated'
p1438
I00
sS'text'
p1439
S'That is the slow ritual torture murder of children, one after another ... how many bulb headed skeletons have to go stiff in your arms?'
p1440
sS'created_at'
p1441
S'Thu Oct 28 13:47:26 +0000 2010'
p1442
sS'retweeted'
p1443
I00
sS'coordinates'
p1444
NsS'in_reply_to_status_id'
p1445
NsS'place'
p1446
NsS'in_reply_to_screen_name'
p1447
NsS'retweet_count'
p1448
NsS'geo'
p1449
NsS'id'
p1450
I28990466417
sa(dp1451
S'favorited'
p1452
I00
sS'truncated'
p1453
I00
sS'text'
p1454
S"Where's Mother Teresa trying to teach them how to give a hand job?"
p1455
sS'created_at'
p1456
S'Wed Oct 27 15:32:19 +0000 2010'
p1457
sS'retweeted'
p1458
I00
sS'coordinates'
p1459
NsS'in_reply_to_status_id'
p1460
NsS'in_reply_to_screen_name'
p1461
NsS'place'
p1462
NsS'retweet_count'
p1463
NsS'geo'
p1464
NsS'id'
p1465
I28900451515
sa(dp1466
S'favorited'
p1467
I00
sS'truncated'
p1468
I00
sS'text'
p1469
S'Your sins are the only interesting thing about you dreary, bleak, motherfuckers.'
p1470
sS'created_at'
p1471
S'Tue Oct 26 14:52:52 +0000 2010'
p1472
sS'retweeted'
p1473
I00
sS'coordinates'
p1474
NsS'in_reply_to_status_id'
p1475
NsS'place'
p1476
NsS'in_reply_to_screen_name'
p1477
NsS'retweet_count'
p1478
NsS'geo'
p1479
NsS'id'
p1480
I28797992515
sa(dp1481
S'favorited'
p1482
I00
sS'truncated'
p1483
I00
sS'text'
p1484
S"If you are in here and you are gay and you are offended that I'm using the word faggot, I apologize and I'll suck your dick after the show."
p1485
sS'created_at'
p1486
S'Mon Oct 25 14:45:53 +0000 2010'
p1487
sS'retweeted'
p1488
I00
sS'coordinates'
p1489
NsS'in_reply_to_status_id'
p1490
NsS'place'
p1491
NsS'in_reply_to_screen_name'
p1492
NsS'retweet_count'
p1493
NsS'geo'
p1494
NsS'id'
p1495
I28697452931
sa(dp1496
S'favorited'
p1497
I00
sS'truncated'
p1498
I00
sS'text'
p1499
S'"I\'m against abortion except like in cases of rape." ... that\'s like saying "yes a fetus is a human being ... unless his dad is an asshole."'
p1500
sS'created_at'
p1501
S'Sun Oct 24 14:36:11 +0000 2010'
p1502
sS'retweeted'
p1503
I00
sS'coordinates'
p1504
NsS'in_reply_to_status_id'
p1505
NsS'place'
p1506
NsS'in_reply_to_screen_name'
p1507
NsS'retweet_count'
p1508
NsS'geo'
p1509
NsS'id'
p1510
I28600462490
sa(dp1511
S'favorited'
p1512
I00
sS'truncated'
p1513
I00
sS'text'
p1514
S"If you are going to have a pro-drug argument, start the argument where it starts. It's my fucking business. Fuck off."
p1515
sS'created_at'
p1516
S'Sat Oct 23 13:57:43 +0000 2010'
p1517
sS'retweeted'
p1518
I00
sS'coordinates'
p1519
NsS'in_reply_to_status_id'
p1520
NsS'place'
p1521
NsS'in_reply_to_screen_name'
p1522
NsS'retweet_count'
p1523
NsS'geo'
p1524
NsS'id'
p1525
I28502353378
sa(dp1526
S'favorited'
p1527
I00
sS'truncated'
p1528
I00
sS'text'
p1529
S'Alcohol gives me the courage to stand up here in front of you judgmental pricks.'
p1530
sS'created_at'
p1531
S'Fri Oct 22 15:27:27 +0000 2010'
p1532
sS'retweeted'
p1533
I00
sS'coordinates'
p1534
NsS'in_reply_to_status_id'
p1535
NsS'place'
p1536
NsS'in_reply_to_screen_name'
p1537
NsS'retweet_count'
p1538
NsS'geo'
p1539
NsS'id'
p1540
I28414867983
sa(dp1541
S'favorited'
p1542
I00
sS'truncated'
p1543
I00
sS'text'
p1544
S"That's like going to a titty bar and complaining because your lap dancer is a communist."
p1545
sS'created_at'
p1546
S'Thu Oct 21 15:01:47 +0000 2010'
p1547
sS'retweeted'
p1548
I00
sS'coordinates'
p1549
NsS'in_reply_to_status_id'
p1550
NsS'place'
p1551
NsS'in_reply_to_screen_name'
p1552
NsS'retweet_count'
p1553
NsS'geo'
p1554
NsS'id'
p1555
I28034453171
sa(dp1556
S'favorited'
p1557
I00
sS'truncated'
p1558
I00
sS'text'
p1559
S'I have the right to do whatever the hell I want to my own body. If it kills me slowly; happy for me, fuck you. Clack clack. Stop me.'
p1560
sS'created_at'
p1561
S'Wed Oct 20 13:46:45 +0000 2010'
p1562
sS'retweeted'
p1563
I00
sS'coordinates'
p1564
NsS'in_reply_to_status_id'
p1565
NsS'place'
p1566
NsS'in_reply_to_screen_name'
p1567
NsS'retweet_count'
p1568
NsS'geo'
p1569
NsS'id'
p1570
I27932381025
sa(dp1571
S'favorited'
p1572
I00
sS'truncated'
p1573
I00
sS'text'
p1574
S"Every vice is already a punishment in itself ... you don't need a ticket on top of it."
p1575
sS'created_at'
p1576
S'Tue Oct 19 14:11:47 +0000 2010'
p1577
sS'retweeted'
p1578
I00
sS'coordinates'
p1579
NsS'in_reply_to_status_id'
p1580
NsS'in_reply_to_screen_name'
p1581
NsS'place'
p1582
NsS'retweet_count'
p1583
NsS'geo'
p1584
NsS'id'
p1585
I27836596967
sa(dp1586
S'favorited'
p1587
I00
sS'truncated'
p1588
I00
sS'text'
p1589
S'"It\'s the violence in the media that\'s the problem ..." No, the problem is a lot of your kids are dicks and you won\'t do shit about it.'
p1590
sS'created_at'
p1591
S'Mon Oct 18 14:56:07 +0000 2010'
p1592
sS'retweeted'
p1593
I00
sS'coordinates'
p1594
NsS'in_reply_to_status_id'
p1595
NsS'place'
p1596
NsS'in_reply_to_screen_name'
p1597
NsS'retweet_count'
p1598
NsS'geo'
p1599
NsS'id'
p1600
I27741940696
sasg244
(lp1601
(dp1602
g247
I179771579
sg248
S'DREEON'
p1603
sa(dp1604
g247
I192770779
sg248
S'CHRISTIEnAMi'
p1605
sa(dp1606
g247
I16667193
sg248
S'shelbilavender'
p1607
sa(dp1608
g247
I40203485
sg248
S'SoundsXplosive'
p1609
sa(dp1610
g247
I146491275
sg248
S'anteupradio'
p1611
sa(dp1612
g247
I138717716
sg248
S'BrianOfThe508'
p1613
sa(dp1614
g247
I105524967
sg248
S'technopodcast'
p1615
sa(dp1616
g247
I38091945
sg248
S'vinhluc'
p1617
sa(dp1618
g247
I152928656
sg248
S'Iamthecoroner'
p1619
sa(dp1620
g247
I111464819
sg248
S'pipeislove'
p1621
sa(dp1622
g247
I35746321
sg248
S'nashtom'
p1623
sa(dp1624
g247
I193362255
sg248
S'Gutter1212'
p1625
sa(dp1626
g247
I212535279
sg248
S'drinkingcoffee_'
p1627
sa(dp1628
g247
I43159308
sg248
S'liam_d_odonnell'
p1629
sa(dp1630
g247
I58024158
sg248
S'TomShawComedy'
p1631
sa(dp1632
g247
I25906537
sg248
S'candycane100691'
p1633
sa(dp1634
g247
I132611780
sg248
S'Violaatje'
p1635
sa(dp1636
g247
I20364761
sg248
S'Stanbo66'
p1637
sa(dp1638
g247
I37217531
sg248
S'joe_randazzo'
p1639
sa(dp1640
g247
I186690778
sg248
S'ParaPeep1985'
p1641
sa(dp1642
g247
I184549161
sg248
S'Pani_Voskou'
p1643
sa(dp1644
g247
I22052432
sg248
S'RyanDM'
p1645
sa(dp1646
g247
I22419546
sg248
S'KrystalSim'
p1647
sa(dp1648
g247
I34865747
sg248
S'davidtanny'
p1649
sa(dp1650
g247
I122230546
sg248
S'kychee1'
p1651
sa(dp1652
g247
I9508302
sg248
S'reeder'
p1653
sa(dp1654
g247
I113461436
sg248
S'JohnnyAwful'
p1655
sa(dp1656
g247
I72159738
sg248
S'sexton55'
p1657
sa(dp1658
g247
I211117435
sg248
S'mwesty9'
p1659
sa(dp1660
g247
I208632556
sg248
S'Janice_4_StateC'
p1661
sa(dp1662
g247
I211084505
sg248
S'Annoying_BS'
p1663
sa(dp1664
g247
I43179663
sg248
S'FuckMeRunninDan'
p1665
sa(dp1666
g247
I164554674
sg248
S'jfbthedude'
p1667
sa(dp1668
g247
I206452723
sg248
S'joejbaseball'
p1669
sa(dp1670
g247
I48872238
sg248
S'JonnyOlm'
p1671
sa(dp1672
g247
I211297887
sg248
S'xyungxtezzx'
p1673
sa(dp1674
g247
I22262281
sg248
S'garyboyce'
p1675
sa(dp1676
g247
I211547565
sg248
S'23lies'
p1677
sa(dp1678
g247
I172083110
sg248
S'theysaiditblog'
p1679
sa(dp1680
g247
I191662664
sg248
S'aaronamerican'
p1681
sa(dp1682
g247
I211402924
sg248
S'DearNeighbors'
p1683
sa(dp1684
g247
I191192547
sg248
S'ClaraElectra'
p1685
sa(dp1686
g247
I41162638
sg248
S'ctbadger666'
p1687
sa(dp1688
g247
I122967398
sg248
S'GripingGreeny'
p1689
sa(dp1690
g247
I101672244
sg248
S'johnwendler'
p1691
sa(dp1692
g247
I52281289
sg248
S'Dell13'
p1693
sa(dp1694
g247
I155068964
sg248
S'jshaw1010'
p1695
sa(dp1696
g247
I201454133
sg248
S'gutball'
p1697
sa(dp1698
g247
I87464725
sg248
S'numbersmonkey'
p1699
sa(dp1700
g247
I48428027
sg248
S'MAriaEMJB'
p1701
sa(dp1702
g247
I19624953
sg248
S'heroin_bob'
p1703
sa(dp1704
g247
I159496026
sg248
S'rachealwilson'
p1705
sa(dp1706
g247
I14232773
sg248
S'GraziellaB'
p1707
sa(dp1708
g247
I20268562
sg248
S'TimOnAir'
p1709
sa(dp1710
g247
I200169343
sg248
S'toyf_ug'
p1711
sa(dp1712
g247
I83467788
sg248
S'DignityIsAMyth'
p1713
sa(dp1714
g247
I211471089
sg248
S'OfAllOblivion'
p1715
sa(dp1716
g247
I22228131
sg248
S'ericlemke'
p1717
sa(dp1718
g247
I93818584
sg248
S'Hardworlder'
p1719
sa(dp1720
g247
I67794550
sg248
S'CindyW1213'
p1721
sa(dp1722
g247
I7189962
sg248
S'JoeVerily'
p1723
sa(dp1724
g247
I208243032
sg248
S'msmstafford'
p1725
sa(dp1726
g247
I211030314
sg248
S'captainrant'
p1727
sa(dp1728
g247
I61547948
sg248
S'richkeo'
p1729
sa(dp1730
g247
I209055112
sg248
S'armw95'
p1731
sa(dp1732
g247
I30983941
sg248
S'endangerd'
p1733
sa(dp1734
g247
I16494122
sg248
S'maybelogics'
p1735
sa(dp1736
g247
I44983881
sg248
S'aElectricWizard'
p1737
sa(dp1738
g247
I195596357
sg248
S'Ischweich'
p1739
sa(dp1740
g247
I210419448
sg248
S'Seemouse'
p1741
sa(dp1742
g247
I70794234
sg248
S'nursingmomof2'
p1743
sa(dp1744
g247
I195839911
sg248
S'PeterDick33'
p1745
sa(dp1746
g247
I95521699
sg248
S'davez001'
p1747
sa(dp1748
g247
I53993816
sg248
S'georgewhittle'
p1749
sa(dp1750
g247
I199941356
sg248
S'thirteenecho'
p1751
sa(dp1752
g247
I14061634
sg248
S'linguista_eu'
p1753
sa(dp1754
g247
I188293695
sg248
S'supersize1981'
p1755
sa(dp1756
g247
I128081189
sg248
S'LauraLedesma'
p1757
sa(dp1758
g247
I206169972
sg248
S'wildicahya'
p1759
sa(dp1760
g247
I192222452
sg248
S'HIV_and_Single'
p1761
sa(dp1762
g247
I95827379
sg248
S'AmandanDeean'
p1763
sa(dp1764
g247
I15740882
sg248
S'PhilGordonPhoto'
p1765
sa(dp1766
g247
I203036711
sg248
S'gRITA_BARBERA'
p1767
sa(dp1768
g247
I131062052
sg248
S'istripbolts'
p1769
sa(dp1770
g247
I140945352
sg248
S'RockingRoses'
p1771
sa(dp1772
g247
I183692386
sg248
S'o_screw'
p1773
sa(dp1774
g247
I2040191
sg248
S'Dazreil'
p1775
sa(dp1776
g247
I119966179
sg248
S'danys1'
p1777
sa(dp1778
g247
I206055747
sg248
S'KohScholar'
p1779
sa(dp1780
g247
I89553911
sg248
S'SierraTignor'
p1781
sa(dp1782
g247
I90712477
sg248
S'RattyBoy1970'
p1783
sa(dp1784
g247
I212412424
sg248
S'pretendhero'
p1785
sa(dp1786
g247
I20820674
sg248
S'tomdods'
p1787
sa(dp1788
g247
I28685411
sg248
S'davidrech'
p1789
sa(dp1790
g247
I161574417
sg248
S'smilefor3'
p1791
sa(dp1792
g247
I212138730
sg248
S'dougcwilliams1'
p1793
sa(dp1794
g247
I199537353
sg248
S'proxybytypist'
p1795
sa(dp1796
g247
I201650001
sg248
S'comedyspeakeasy'
p1797
sa(dp1798
g247
I190705096
sg248
S'dawaypaMAN'
p1799
sa(dp1800
g247
I173105573
sg248
S'dc51cab'
p1801
sasg294
(lp1802
(dp1803
g247
I44092101
sg248
S'wickedinspired'
p1804
sa(dp1805
g247
I29718952
sg248
S'JDVA'
p1806
sa(dp1807
g247
I32496975
sg248
S'meganms401'
p1808
sa(dp1809
g247
I94325225
sg248
S'EJWK'
p1810
sa(dp1811
g247
I9595562
sg248
S'tillylonsdale'
p1812
sa(dp1813
g247
I73363815
sg248
S'richardbrady1'
p1814
sa(dp1815
g247
I85613699
sg248
S'street83'
p1816
sa(dp1817
g247
I53392624
sg248
S'danpyt'
p1818
sa(dp1819
g247
I21649865
sg248
S'laurence_chater'
p1820
sa(dp1821
g247
I19103717
sg248
S'directedbychris'
p1822
sa(dp1823
g247
I17877787
sg248
S'alibal'
p1824
sa(dp1825
g247
I20625070
sg248
S'SunetaK'
p1826
sa(dp1827
g247
I188281349
sg248
S'jenreqeld'
p1828
sa(dp1829
g247
I22070029
sg248
S'RowanSearle'
p1830
sa(dp1831
g247
I14942957
sg248
S'shodan_uk'
p1832
sa(dp1833
g247
I47671261
sg248
S'stu00c'
p1834
sa(dp1835
g247
I153771144
sg248
S'paul_maddock'
p1836
sa(dp1837
g247
I158083024
sg248
S'JoeScaramanga'
p1838
sa(dp1839
g247
I1348651
sg248
S'yawdogs'
p1840
sa(dp1841
g247
I191844288
sg248
S'Susaeta75'
p1842
sa(dp1843
g247
I168212833
sg248
S'twyardley'
p1844
sa(dp1845
g247
I37720706
sg248
S'kfosullivan'
p1846
sa(dp1847
g247
I149994717
sg248
S'PappaStew'
p1848
sa(dp1849
g247
I51086531
sg248
S'CalLillistone'
p1850
sa(dp1851
g247
I32153596
sg248
S'cockfoster'
p1852
sa(dp1853
g247
I19295203
sg248
S'Catiewilkins'
p1854
sa(dp1855
g247
I174227353
sg248
S'OzzyA_86'
p1856
sa(dp1857
g247
I151466354
sg248
S'AndyJHalsey'
p1858
sa(dp1859
g247
I20055712
sg248
S'Johan_uk'
p1860
sa(dp1861
g247
I151105124
sg248
S'dmd_updates'
p1862
sa(dp1863
g247
I23742642
sg248
S'gaizka6'
p1864
sa(dp1865
g247
I212583967
sg248
S'Wintrovia'
p1866
sa(dp1867
g247
I212565635
sg248
S'jssfstr'
p1868
sa(dp1869
g247
I83467788
sg248
S'DignityIsAMyth'
p1870
sa(dp1871
g247
I56823553
sg248
S'CodyHowey'
p1872
sa(dp1873
g247
I158574422
sg248
S'Masamune_0'
p1874
sa(dp1875
g247
I212670989
sg248
S'rekkedhog'
p1876
sa(dp1877
g247
I148407269
sg248
S'NoBScomedy'
p1878
sa(dp1879
g247
I63831189
sg248
S'DolphFan4Life'
p1880
sa(dp1881
g247
I203698071
sg248
S'dlconnery'
p1882
sa(dp1883
g247
I36329373
sg248
S'usernametaken10'
p1884
sa(dp1885
g247
I117453845
sg248
S'LauraMaeva'
p1886
sa(dp1887
g247
I142743555
sg248
S'tommykaboom'
p1888
sa(dp1889
g247
I22800021
sg248
S'justine628'
p1890
sa(dp1891
g247
I89992895
sg248
S'mclark82'
p1892
sa(dp1893
g247
I200878112
sg248
S'PseudoCarl'
p1894
sa(dp1895
g247
I19166753
sg248
S'marspalm'
p1896
sa(dp1897
g247
I27474382
sg248
S'jennyg29'
p1898
sa(dp1899
g247
I134260978
sg248
S'joesephshmoe'
p1900
sa(dp1901
g247
I108231387
sg248
S'omgshejustsaid'
p1902
sa(dp1903
g247
I36243964
sg248
S'bagoflazers'
p1904
sa(dp1905
g247
I19484079
sg248
S'HandsomeGenius'
p1906
sa(dp1907
g247
I152807225
sg248
S'dopeynaintfunny'
p1908
sa(dp1909
g247
I20853156
sg248
S'Xorny'
p1910
sa(dp1911
g247
I212412424
sg248
S'pretendhero'
p1912
sa(dp1913
g247
I141069734
sg248
S'TheLastMouse'
p1914
sa(dp1915
g247
I14208504
sg248
S'eepcoo'
p1916
sa(dp1917
g247
I163255100
sg248
S'qourt'
p1918
sa(dp1919
g247
I44849300
sg248
S'LookAtMyChicken'
p1920
sa(dp1921
g247
I194070963
sg248
S'leerf'
p1922
sa(dp1923
g247
I146181313
sg248
S'langers8796'
p1924
sa(dp1925
g247
I20313475
sg248
S'qajax'
p1926
sa(dp1927
g247
I18503611
sg248
S'sw0llengoat'
p1928
sa(dp1929
g247
I140071498
sg248
S'benstone1984'
p1930
sa(dp1931
g247
I148302711
sg248
S'JayBalf4'
p1932
sa(dp1933
g247
I21144134
sg248
S'Craigthulhu'
p1934
sa(dp1935
g247
I70696811
sg248
S'PeteBlaggit'
p1936
sa(dp1937
g247
I22497025
sg248
S'Jonster201'
p1938
sa(dp1939
g247
I38533588
sg248
S'robotlovesyou'
p1940
sa(dp1941
g247
I27553990
sg248
S'donnakurylak'
p1942
sa(dp1943
g247
I78269920
sg248
S'purplemonkeyman'
p1944
sa(dp1945
g247
I185150830
sg248
S'bambi_savage'
p1946
sa(dp1947
g247
I23152929
sg248
S'jontollman'
p1948
sa(dp1949
g247
I146068836
sg248
S'TheSeeSee'
p1950
sa(dp1951
g247
I148319707
sg248
S'weareBlindness'
p1952
sa(dp1953
g247
I19684903
sg248
S'dstack30'
p1954
sa(dp1955
g247
I176093949
sg248
S'MichaelAstbury'
p1956
sa(dp1957
g247
I21381282
sg248
S'james_gr'
p1958
sa(dp1959
g247
I19832250
sg248
S'alexcrawford'
p1960
sa(dp1961
g247
I94517628
sg248
S'dutycyclegen'
p1962
sa(dp1963
g247
I18761776
sg248
S'clickting'
p1964
sa(dp1965
g247
I133406106
sg248
S'ptomwills'
p1966
sa(dp1967
g247
I37048870
sg248
S'noushiine'
p1968
sa(dp1969
g247
I23745552
sg248
S'EmmaMcN'
p1970
sa(dp1971
g247
I21090287
sg248
S'christoph_84'
p1972
sa(dp1973
g247
I130496041
sg248
S'nicksilvey'
p1974
sa(dp1975
g247
I21914242
sg248
S'nicface'
p1976
sa(dp1977
g247
I11982072
sg248
S'MartynHaigh'
p1978
sa(dp1979
g247
I180727911
sg248
S'helloTobyXu'
p1980
sa(dp1981
g247
I211380787
sg248
S'moviemen66'
p1982
sa(dp1983
g247
I84443445
sg248
S'DARinaldi'
p1984
sa(dp1985
g247
I22604363
sg248
S'gregcessford'
p1986
sa(dp1987
g247
I97656237
sg248
S'junkie32'
p1988
sa(dp1989
g247
I212438376
sg248
S'RollCoasterClub'
p1990
sa(dp1991
g247
I43159308
sg248
S'liam_d_odonnell'
p1992
sa(dp1993
g247
I181708834
sg248
S'rezaasgari'
p1994
sa(dp1995
g247
I79229176
sg248
S'rwtphd'
p1996
sa(dp1997
g247
I109530899
sg248
S'chris_ison'
p1998
sa(dp1999
g247
I62474647
sg248
S'tommortonsmith'
p2000
sa(dp2001
g247
I55857939
sg248
S'BobboGrande'
p2002
sasg248
g540
sg393
g394
(S'\x07\xda\x0b\x06\x142\x04\x01\x95\xac'
p2003
tp2004
Rp2005
sa(dp2006
g2
(lp2007
(dp2008
S'favorited'
p2009
I00
sS'truncated'
p2010
I00
sS'text'
p2011
S"@50cent bet you won't ride down my block in that shit"
p2012
sS'created_at'
p2013
S'Sat Nov 06 22:46:25 +0000 2010'
p2014
sS'retweeted'
p2015
I00
sS'coordinates'
p2016
NsS'in_reply_to_status_id'
p2017
NsS'place'
p2018
NsS'in_reply_to_screen_name'
p2019
S'50cent'
p2020
sS'retweet_count'
p2021
NsS'geo'
p2022
NsS'id'
p2023
I1042751076442113
sa(dp2024
S'favorited'
p2025
I00
sS'truncated'
p2026
I00
sS'text'
p2027
S"Tonight I'm gonna put our relationship to the test.Promises will be made lives will chAnge and feelings may be hurt.not mine though I'm busy"
p2028
sS'created_at'
p2029
S'Sat Nov 06 22:44:39 +0000 2010'
p2030
sS'retweeted'
p2031
I00
sS'coordinates'
p2032
NsS'in_reply_to_status_id'
p2033
NsS'place'
p2034
NsS'in_reply_to_screen_name'
p2035
NsS'retweet_count'
p2036
NsS'geo'
p2037
NsS'id'
p2038
I1042306283085825
sa(dp2039
S'favorited'
p2040
I00
sS'truncated'
p2041
I00
sS'text'
p2042
VI know this dude Mimic\u2122 that's good enough for me
p2043
sS'created_at'
p2044
S'Sat Nov 06 21:47:06 +0000 2010'
p2045
sS'retweeted'
p2046
I00
sS'coordinates'
p2047
NsS'in_reply_to_status_id'
p2048
NsS'place'
p2049
NsS'in_reply_to_screen_name'
p2050
NsS'retweet_count'
p2051
NsS'geo'
p2052
NsS'id'
p2053
I1027823582052352
sa(dp2054
S'favorited'
p2055
I00
sS'truncated'
p2056
I00
sS'text'
p2057
S'Skinny jeans wernt as popular back when G.W. bush was in office. Coincidence or gay democratic conspiracy'
p2058
sS'created_at'
p2059
S'Sat Nov 06 21:40:26 +0000 2010'
p2060
sS'retweeted'
p2061
I00
sS'coordinates'
p2062
NsS'in_reply_to_status_id'
p2063
NsS'place'
p2064
NsS'in_reply_to_screen_name'
p2065
NsS'retweet_count'
p2066
NsS'geo'
p2067
NsS'id'
p2068
I1026145168396289
sa(dp2069
S'favorited'
p2070
I00
sS'truncated'
p2071
I00
sS'text'
p2072
S'The same people that put estrogen in your food want you to think being racist is bad, that sexual harassment is wrong & skinny jeans R legit'
p2073
sS'created_at'
p2074
S'Sat Nov 06 21:37:37 +0000 2010'
p2075
sS'retweeted'
p2076
I00
sS'coordinates'
p2077
NsS'in_reply_to_status_id'
p2078
NsS'place'
p2079
NsS'in_reply_to_screen_name'
p2080
NsS'retweet_count'
p2081
NsS'geo'
p2082
NsS'id'
p2083
I1025435722846208
sa(dp2084
S'favorited'
p2085
I00
sS'truncated'
p2086
I00
sS'text'
p2087
S'@hoytsterr ahhh so it is. I believe the word I was looking for is NigGger thanks hope this clears any confusion'
p2088
sS'created_at'
p2089
S'Sat Nov 06 21:28:20 +0000 2010'
p2090
sS'retweeted'
p2091
I00
sS'coordinates'
p2092
NsS'in_reply_to_status_id'
p2093
NsS'place'
p2094
NsS'in_reply_to_screen_name'
p2095
S'hoytsterr'
p2096
sS'retweet_count'
p2097
NsS'geo'
p2098
NsS'id'
p2099
I1023100825112576
sa(dp2100
S'favorited'
p2101
I00
sS'truncated'
p2102
I00
sS'text'
p2103
S"@DumbYankee my mom never fed us wings because that's niger food"
p2104
sS'created_at'
p2105
S'Sat Nov 06 21:09:26 +0000 2010'
p2106
sS'retweeted'
p2107
I00
sS'coordinates'
p2108
NsS'in_reply_to_status_id'
p2109
I1017086549696515
sS'place'
p2110
NsS'in_reply_to_screen_name'
p2111
S'DumbYankee'
p2112
sS'retweet_count'
p2113
NsS'geo'
p2114
NsS'id'
p2115
I1018343096061952
sa(dp2116
S'favorited'
p2117
I00
sS'truncated'
p2118
I00
sS'text'
p2119
S"I don't know if I can d  preppy tonight but I can do casual gangst don't want to go to preppy and wind up looking like something I'm not"
p2120
sS'created_at'
p2121
S'Sat Nov 06 21:07:41 +0000 2010'
p2122
sS'retweeted'
p2123
I00
sS'coordinates'
p2124
NsS'in_reply_to_status_id'
p2125
NsS'place'
p2126
NsS'in_reply_to_screen_name'
p2127
NsS'retweet_count'
p2128
NsS'geo'
p2129
NsS'id'
p2130
I1017901343576064
sa(dp2131
S'favorited'
p2132
I00
sS'truncated'
p2133
I00
sS'text'
p2134
S'Buy something get something 40% off at sole brother tell em dreeon sent you'
p2135
sS'created_at'
p2136
S'Sat Nov 06 20:32:32 +0000 2010'
p2137
sS'retweeted'
p2138
I00
sS'coordinates'
p2139
NsS'in_reply_to_status_id'
p2140
NsS'place'
p2141
NsS'in_reply_to_screen_name'
p2142
NsS'retweet_count'
p2143
NsS'geo'
p2144
NsS'id'
p2145
I1009055573221377
sa(dp2146
S'favorited'
p2147
I00
sS'truncated'
p2148
I00
sS'text'
p2149
S'Ohhhh meh meh meh meh meh meh meh meh my cherona'
p2150
sS'created_at'
p2151
S'Sat Nov 06 20:25:49 +0000 2010'
p2152
sS'retweeted'
p2153
I00
sS'coordinates'
p2154
NsS'in_reply_to_status_id'
p2155
NsS'place'
p2156
NsS'in_reply_to_screen_name'
p2157
NsS'retweet_count'
p2158
NsS'geo'
p2159
NsS'id'
p2160
I1007365805580288
sa(dp2161
S'favorited'
p2162
I00
sS'truncated'
p2163
I00
sS'text'
p2164
S'@OldFuckinCurtis I will get your softtail running and see if I can fix the leak for one sausage biscut with ketsup and one boberry biscut'
p2165
sS'created_at'
p2166
S'Sat Nov 06 20:03:13 +0000 2010'
p2167
sS'retweeted'
p2168
I00
sS'coordinates'
p2169
NsS'in_reply_to_status_id'
p2170
NsS'place'
p2171
NsS'in_reply_to_screen_name'
p2172
S'OldFuckinCurtis'
p2173
sS'retweet_count'
p2174
NsS'geo'
p2175
NsS'id'
p2176
I1001678815895552
sa(dp2177
S'favorited'
p2178
I00
sS'truncated'
p2179
I00
sS'text'
p2180
S'In case you were wondering what happened to all that stuff that one time, it was converted to this http://yfrog.com/gvqqxyj'
p2181
sS'created_at'
p2182
S'Sat Nov 06 19:35:26 +0000 2010'
p2183
sS'retweeted'
p2184
I00
sS'coordinates'
p2185
NsS'in_reply_to_status_id'
p2186
NsS'place'
p2187
NsS'in_reply_to_screen_name'
p2188
NsS'retweet_count'
p2189
NsS'geo'
p2190
NsS'id'
p2191
I994685183070208
sa(dp2192
S'favorited'
p2193
I00
sS'truncated'
p2194
I00
sS'text'
p2195
S'Duck when I bust. That is all for now'
p2196
sS'created_at'
p2197
S'Sat Nov 06 19:26:52 +0000 2010'
p2198
sS'retweeted'
p2199
I00
sS'coordinates'
p2200
NsS'in_reply_to_status_id'
p2201
NsS'place'
p2202
NsS'in_reply_to_screen_name'
p2203
NsS'retweet_count'
p2204
NsS'geo'
p2205
NsS'id'
p2206
I992529969319936
sa(dp2207
S'favorited'
p2208
I00
sS'truncated'
p2209
I00
sS'text'
p2210
S"Good I see you've already met so we can skip the formal intriduction and just let michael take over from here"
p2211
sS'created_at'
p2212
S'Sat Nov 06 03:30:38 +0000 2010'
p2213
sS'retweeted'
p2214
I00
sS'coordinates'
p2215
NsS'in_reply_to_status_id'
p2216
NsS'place'
p2217
NsS'in_reply_to_screen_name'
p2218
NsS'retweet_count'
p2219
NsS'geo'
p2220
NsS'id'
p2221
I751888102326272
sa(dp2222
S'favorited'
p2223
I00
sS'truncated'
p2224
I00
sS'text'
p2225
S"@hoytsterr I'm trying to park a battleship in a coffee cup"
p2226
sS'created_at'
p2227
S'Sat Nov 06 00:57:54 +0000 2010'
p2228
sS'retweeted'
p2229
I00
sS'coordinates'
p2230
NsS'in_reply_to_status_id'
p2231
I711491284107264
sS'place'
p2232
NsS'in_reply_to_screen_name'
p2233
S'hoytsterr'
p2234
sS'retweet_count'
p2235
NsS'geo'
p2236
NsS'id'
p2237
I713450460282880
sa(dp2238
S'favorited'
p2239
I00
sS'truncated'
p2240
I00
sS'text'
p2241
S'Is this bahari? http://yfrog.com/2sz0oyj'
p2242
sS'created_at'
p2243
S'Fri Nov 05 22:29:09 +0000 2010'
p2244
sS'retweeted'
p2245
I00
sS'coordinates'
p2246
NsS'in_reply_to_status_id'
p2247
NsS'place'
p2248
NsS'in_reply_to_screen_name'
p2249
NsS'retweet_count'
p2250
NsS'geo'
p2251
NsS'id'
p2252
I676017702178819
sa(dp2253
S'favorited'
p2254
I00
sS'truncated'
p2255
I00
sS'text'
p2256
S"I'm not a racist I'm a republican but I would never vote. Only if I had to take my ballot to a hotelroom hand it to tina fey and sara palin."
p2257
sS'created_at'
p2258
S'Thu Nov 04 23:11:49 +0000 2010'
p2259
sS'retweeted'
p2260
I00
sS'coordinates'
p2261
NsS'in_reply_to_status_id'
p2262
NsS'place'
p2263
NsS'in_reply_to_screen_name'
p2264
NsS'retweet_count'
p2265
NsS'geo'
p2266
NsS'id'
p2267
I324365832949760
sa(dp2268
S'favorited'
p2269
I00
sS'truncated'
p2270
I00
sS'text'
p2271
S'@hoytsterr hahahaha yep'
p2272
sS'created_at'
p2273
S'Thu Nov 04 21:16:22 +0000 2010'
p2274
sS'retweeted'
p2275
I00
sS'coordinates'
p2276
NsS'in_reply_to_status_id'
p2277
NsS'place'
p2278
NsS'in_reply_to_screen_name'
p2279
S'hoytsterr'
p2280
sS'retweet_count'
p2281
NsS'geo'
p2282
NsS'id'
p2283
I295312941912064
sasg244
(lp2284
(dp2285
g247
I195546843
sg248
S'AnjaliHemphill'
p2286
sa(dp2287
g247
I159230403
sg248
S'TheRealPITTS'
p2288
sa(dp2289
g247
I204993274
sg248
S'soberrynotty'
p2290
sa(dp2291
g247
I183032152
sg248
S'Tonybagofdonuts'
p2292
sa(dp2293
g247
I176148129
sg248
S'Pieces810'
p2294
sa(dp2295
g247
I149057611
sg248
S'Pokerstudygroup'
p2296
sa(dp2297
g247
I176676860
sg248
S'DumbYankee'
p2298
sa(dp2299
g247
I106844785
sg248
S'jsmith8443'
p2300
sa(dp2301
g247
I178517282
sg248
S'Autodownload'
p2302
sa(dp2303
g247
I116313669
sg248
S'LissaMane'
p2304
sa(dp2305
g247
I74278144
sg248
S'quotestanhope'
p2306
sa(dp2307
g247
I108727529
sg248
S'EverettePrice'
p2308
sa(dp2309
g247
I188522460
sg248
S'Sammbino'
p2310
sa(dp2311
g247
I50637045
sg248
S'Britt_Holder'
p2312
sa(dp2313
g247
I176653463
sg248
S'OldFuckinCurtis'
p2314
sa(dp2315
g247
I59280129
sg248
S'hoytsterr'
p2316
sa(dp2317
g247
I46908205
sg248
S'Gain__Followers'
p2318
sa(dp2319
g247
I173056472
sg248
S'TWqAFL473'
p2320
sa(dp2321
g247
I154228459
sg248
S'Nikebuzz'
p2322
sa(dp2323
g247
I157097378
sg248
S'uhNicole'
p2324
sa(dp2325
g247
I89410714
sg248
S'WALMART_DUDE'
p2326
sa(dp2327
g247
I57914321
sg248
S'PatrickRockey'
p2328
sa(dp2329
g247
I197267586
sg248
S'oprahobama'
p2330
sa(dp2331
g247
I67707667
sg248
S'LilScrAnj'
p2332
sa(dp2333
g247
I204647589
sg248
S'MARCIEHURLEY956'
p2334
sa(dp2335
g247
I58809331
sg248
S'ChuckNorriz'
p2336
sa(dp2337
g247
I97706228
sg248
S'JorJordollars'
p2338
sa(dp2339
g247
I15697067
sg248
S'UncleFishbits'
p2340
sa(dp2341
g247
I184515672
sg248
S'theMAYORoMYRTLE'
p2342
sa(dp2343
g247
I187639627
sg248
S'sonsforfreedom'
p2344
sa(dp2345
g247
I208810996
sg248
S'THISizBAHERI'
p2346
sa(dp2347
g247
I209769575
sg248
S'MrConvoTweeter'
p2348
sa(dp2349
g247
I16061163
sg248
S'RobSprance'
p2350
sa(dp2351
g247
I25904908
sg248
S'JRsully'
p2352
sa(dp2353
g247
I178539115
sg248
S'MJBANDIT273'
p2354
sa(dp2355
g247
I186255437
sg248
S'mattyacrite'
p2356
sa(dp2357
g247
I171721795
sg248
S'badcelebrities'
p2358
sasg294
(lp2359
(dp2360
g247
I187639627
sg248
S'sonsforfreedom'
p2361
sa(dp2362
g247
I204647589
sg248
S'MARCIEHURLEY956'
p2363
sa(dp2364
g247
I17278985
sg248
S'Kristen_IRL'
p2365
sa(dp2366
g247
I74278144
sg248
S'quotestanhope'
p2367
sa(dp2368
g247
I75706915
sg248
S'Daniel_M_Phil'
p2369
sa(dp2370
g247
I154228459
sg248
S'Nikebuzz'
p2371
sa(dp2372
g247
I19382500
sg248
S'SoleCollector'
p2373
sa(dp2374
g247
I30406287
sg248
S'erickoston'
p2375
sa(dp2376
g247
I42519612
sg248
S'FloydMayweather'
p2377
sa(dp2378
g247
I9562562
sg248
S'elbeard'
p2379
sa(dp2380
g247
I15485441
sg248
S'jimmyfallon'
p2381
sa(dp2382
g247
I6480732
sg248
S'robhuebel'
p2383
sa(dp2384
g247
I17719233
sg248
S'GaryJBusey'
p2385
sa(dp2386
g247
I14867598
sg248
S'DougStanhope'
p2387
sa(dp2388
g247
I106844785
sg248
S'jsmith8443'
p2389
sa(dp2390
g247
I29611918
sg248
S'KendraWilkinson'
p2391
sa(dp2392
g247
I180902559
sg248
S'gretaglaubke'
p2393
sa(dp2394
g247
I160817572
sg248
S'Lord_Voldemort7'
p2395
sa(dp2396
g247
I72818155
sg248
S'raylewis52com'
p2397
sa(dp2398
g247
I208810996
sg248
S'THISizBAHERI'
p2399
sa(dp2400
g247
I197267586
sg248
S'oprahobama'
p2401
sa(dp2402
g247
I17053535
sg248
S'drugscom'
p2403
sa(dp2404
g247
I16061163
sg248
S'RobSprance'
p2405
sa(dp2406
g247
I178517282
sg248
S'Autodownload'
p2407
sa(dp2408
g247
I204993274
sg248
S'soberrynotty'
p2409
sa(dp2410
g247
I28638191
sg248
S'Sn00ki'
p2411
sa(dp2412
g247
I28474662
sg248
S'cocosworld'
p2413
sa(dp2414
g247
I34888855
sg248
S'mr_t_facts'
p2415
sa(dp2416
g247
I67229661
sg248
S'GroovyChin'
p2417
sa(dp2418
g247
I156132825
sg248
S'MikeTyson'
p2419
sa(dp2420
g247
I19908848
sg248
S'MancowMuller'
p2421
sa(dp2422
g247
I129202902
sg248
S'naturesmed420'
p2423
sa(dp2424
g247
I112652948
sg248
S'daveihl'
p2425
sa(dp2426
g247
I184274375
sg248
S'InventionAdvice'
p2427
sa(dp2428
g247
I77266514
sg248
S'Papa_John_'
p2429
sa(dp2430
g247
I20354845
sg248
S'kirstenmoore'
p2431
sa(dp2432
g247
I108685765
sg248
S'unhappyhipsters'
p2433
sa(dp2434
g247
I59280129
sg248
S'hoytsterr'
p2435
sa(dp2436
g247
I35335859
sg248
S'MRTHIEF'
p2437
sa(dp2438
g247
I141183055
sg248
S'TheLifeThief'
p2439
sa(dp2440
g247
I23139194
sg248
S'DNCL'
p2441
sa(dp2442
g247
I19486963
sg248
S'NipseyHussle'
p2443
sa(dp2444
g247
I34888586
sg248
S'chuck_facts'
p2445
sa(dp2446
g247
I32462148
sg248
S'jasonbritton'
p2447
sa(dp2448
g247
I195546843
sg248
S'AnjaliHemphill'
p2449
sa(dp2450
g247
I157097378
sg248
S'uhNicole'
p2451
sa(dp2452
g247
I15697067
sg248
S'UncleFishbits'
p2453
sa(dp2454
g247
I188522460
sg248
S'Sammbino'
p2455
sa(dp2456
g247
I46954727
sg248
S'FATJEW'
p2457
sa(dp2458
g247
I31206614
sg248
S'Jesus_M_Christ'
p2459
sa(dp2460
g247
I34387766
sg248
S'PartyNBullshit'
p2461
sa(dp2462
g247
I97369148
sg248
S'dollycompton'
p2463
sa(dp2464
g247
I52551600
sg248
S'JimCarrey'
p2465
sa(dp2466
g247
I18222378
sg248
S'50cent'
p2467
sa(dp2468
g247
I21713519
sg248
S'M_Ahmadinejad'
p2469
sa(dp2470
g247
I187371887
sg248
S'English50cent'
p2471
sa(dp2472
g247
I186255437
sg248
S'mattyacrite'
p2473
sa(dp2474
g247
I30038742
sg248
S'bpeezy252'
p2475
sa(dp2476
g247
I136800225
sg248
S'RacistTom'
p2477
sa(dp2478
g247
I184515672
sg248
S'theMAYORoMYRTLE'
p2479
sa(dp2480
g247
I178539115
sg248
S'MJBANDIT273'
p2481
sa(dp2482
g247
I183032152
sg248
S'Tonybagofdonuts'
p2483
sa(dp2484
g247
I29323321
sg248
S'Ass_Mint'
p2485
sa(dp2486
g247
I15828965
sg248
S'BadAssFrank'
p2487
sa(dp2488
g247
I6480682
sg248
S'azizansari'
p2489
sa(dp2490
g247
I5402612
sg248
S'BBCBreaking'
p2491
sa(dp2492
g247
I428333
sg248
S'cnnbrk'
p2493
sa(dp2494
g247
I23122597
sg248
S'ericwareheim'
p2495
sa(dp2496
g247
I21035409
sg248
S'michaelianblack'
p2497
sa(dp2498
g247
I26096164
sg248
S'caitlinamcguire'
p2499
sa(dp2500
g247
I97706228
sg248
S'JorJordollars'
p2501
sa(dp2502
g247
I102860009
sg248
S'Cbrentriggs'
p2503
sa(dp2504
g247
I6539592
sg248
S'JimGaffigan'
p2505
sa(dp2506
g247
I24964967
sg248
S'Dirt_Nasty'
p2507
sa(dp2508
g247
I22657153
sg248
S'DavidSpade'
p2509
sa(dp2510
g247
I176676860
sg248
S'DumbYankee'
p2511
sa(dp2512
g247
I54677988
sg248
S'coldwindkat'
p2513
sa(dp2514
g247
I31946025
sg248
S'TexDolly'
p2515
sa(dp2516
g247
I38180018
sg248
S'Erik_Seidel'
p2517
sa(dp2518
g247
I80700514
sg248
S'RealTracyMorgan'
p2519
sa(dp2520
g247
I20609518
sg248
S'DalaiLama'
p2521
sa(dp2522
g247
I18198400
sg248
S'phil_hellmuth'
p2523
sa(dp2524
g247
I33995409
sg248
S'dwadeofficial'
p2525
sa(dp2526
g247
I50637045
sg248
S'Britt_Holder'
p2527
sa(dp2528
g247
I67707667
sg248
S'LilScrAnj'
p2529
sa(dp2530
g247
I89410714
sg248
S'WALMART_DUDE'
p2531
sa(dp2532
g247
I116313669
sg248
S'LissaMane'
p2533
sa(dp2534
g247
I25521487
sg248
S'danieltosh'
p2535
sa(dp2536
g247
I23235056
sg248
S'KFUCKINGP'
p2537
sa(dp2538
g247
I115485051
sg248
S'ConanOBrien'
p2539
sa(dp2540
g247
I24008967
sg248
S'thesulk'
p2541
sa(dp2542
g247
I159230403
sg248
S'TheRealPITTS'
p2543
sa(dp2544
g247
I25904908
sg248
S'JRsully'
p2545
sa(dp2546
g247
I176312852
sg248
S'BIGGESTKAT365'
p2547
sa(dp2548
g247
I176148129
sg248
S'Pieces810'
p2549
sa(dp2550
g247
I2767301
sg248
S'SLUTTTFOXX'
p2551
sa(dp2552
g247
I123179595
sg248
S'JMurdErz'
p2553
sa(dp2554
g247
I108727529
sg248
S'EverettePrice'
p2555
sa(dp2556
g247
I176653463
sg248
S'OldFuckinCurtis'
p2557
sasg248
g1603
sg393
g394
(S'\x07\xda\x0b\x06\x142\x0c\t\xb3\xba'
p2558
tp2559
Rp2560
sa(dp2561
g2
(lp2562
(dp2563
S'favorited'
p2564
I00
sS'truncated'
p2565
I00
sS'text'
p2566
S'RT @wesly_q: Be careful what you set your heart on, for it will surely be yours. -Ralph Waldo Emerson #quote'
p2567
sS'created_at'
p2568
S'Sun Nov 07 00:27:27 +0000 2010'
p2569
sS'retweeted'
p2570
I00
sS'coordinates'
p2571
NsS'in_reply_to_status_id'
p2572
NsS'place'
p2573
NsS'in_reply_to_screen_name'
p2574
NsS'retweet_count'
p2575
NsS'geo'
p2576
NsS'id'
p2577
I1068176053895168
sa(dp2578
S'favorited'
p2579
I00
sS'truncated'
p2580
I00
sS'text'
p2581
VI told my psychiatrist that everyone hates me. He said I was being ridiculous - everyone hasn't met me yet- Rodney Dangerfield
p2582
sS'created_at'
p2583
S'Sat Nov 06 15:11:26 +0000 2010'
p2584
sS'retweeted'
p2585
I00
sS'coordinates'
p2586
NsS'in_reply_to_status_id'
p2587
NsS'place'
p2588
NsS'in_reply_to_screen_name'
p2589
NsS'retweet_count'
p2590
NsS'geo'
p2591
NsS'id'
p2592
I928247227359234
sa(dp2593
S'favorited'
p2594
I00
sS'truncated'
p2595
I00
sS'text'
p2596
S"NOo lol :-( RT @iitschiiquii: Sleeping in my car b/c my friend can't check in the hotel til 7am... Feeling like a homeless lmaooo!!!..."
p2597
sS'created_at'
p2598
S'Sat Nov 06 09:58:19 +0000 2010'
p2599
sS'retweeted'
p2600
I00
sS'coordinates'
p2601
NsS'in_reply_to_status_id'
p2602
NsS'place'
p2603
NsS'in_reply_to_screen_name'
p2604
NsS'retweet_count'
p2605
NsS'geo'
p2606
NsS'id'
p2607
I849449362399233
sa(dp2608
S'favorited'
p2609
I00
sS'truncated'
p2610
I00
sS'text'
p2611
S'Goodnightt boo RT @jessieG7: Good night with my love @CHRISTIEnAmi love ya bby momma;)'
p2612
sS'created_at'
p2613
S'Sat Nov 06 04:12:32 +0000 2010'
p2614
sS'retweeted'
p2615
I00
sS'coordinates'
p2616
NsS'in_reply_to_status_id'
p2617
NsS'place'
p2618
NsS'in_reply_to_screen_name'
p2619
NsS'retweet_count'
p2620
NsS'geo'
p2621
NsS'id'
p2622
I762431785672704
sa(dp2623
S'favorited'
p2624
I00
sS'truncated'
p2625
I00
sS'text'
p2626
S'Hahah #fuckthatshitthatyoutalkin RT @jessieG7: Jamingg @CHRISTIEnAMi #fuckthatshityoutalking! Crimemobbbed out;) lmao'
p2627
sS'created_at'
p2628
S'Fri Nov 05 22:35:49 +0000 2010'
p2629
sS'retweeted'
p2630
I00
sS'coordinates'
p2631
NsS'in_reply_to_status_id'
p2632
NsS'place'
p2633
NsS'in_reply_to_screen_name'
p2634
NsS'retweet_count'
p2635
NsS'geo'
p2636
NsS'id'
p2637
I677694169677824
sa(dp2638
S'favorited'
p2639
I00
sS'truncated'
p2640
I00
sS'text'
p2641
VDon't go knocking on death's door, ring the doorbell and run, he hates that!!!!!
p2642
sS'created_at'
p2643
S'Fri Nov 05 21:15:33 +0000 2010'
p2644
sS'retweeted'
p2645
I00
sS'coordinates'
p2646
NsS'in_reply_to_status_id'
p2647
NsS'place'
p2648
NsS'in_reply_to_screen_name'
p2649
NsS'retweet_count'
p2650
NsS'geo'
p2651
NsS'id'
p2652
I657493277540352
sa(dp2653
S'favorited'
p2654
I00
sS'truncated'
p2655
I00
sS'text'
p2656
S'#icantlivewithout my baby girl'
p2657
sS'created_at'
p2658
S'Fri Nov 05 21:15:05 +0000 2010'
p2659
sS'retweeted'
p2660
I00
sS'coordinates'
p2661
NsS'in_reply_to_status_id'
p2662
NsS'place'
p2663
NsS'in_reply_to_screen_name'
p2664
NsS'retweet_count'
p2665
NsS'geo'
p2666
NsS'id'
p2667
I657376210329601
sa(dp2668
S'favorited'
p2669
I00
sS'truncated'
p2670
I00
sS'text'
p2671
VRehab Is for Quitters
p2672
sS'created_at'
p2673
S'Fri Nov 05 21:09:31 +0000 2010'
p2674
sS'retweeted'
p2675
I00
sS'coordinates'
p2676
NsS'in_reply_to_status_id'
p2677
NsS'place'
p2678
NsS'in_reply_to_screen_name'
p2679
NsS'retweet_count'
p2680
NsS'geo'
p2681
NsS'id'
p2682
I655974566199296
sa(dp2683
S'favorited'
p2684
I00
sS'truncated'
p2685
I00
sS'text'
p2686
VBefore giving a piece of your mind, be sure you have enough to spare.
p2687
sS'created_at'
p2688
S'Fri Nov 05 21:05:30 +0000 2010'
p2689
sS'retweeted'
p2690
I00
sS'coordinates'
p2691
NsS'in_reply_to_status_id'
p2692
NsS'place'
p2693
NsS'in_reply_to_screen_name'
p2694
NsS'retweet_count'
p2695
NsS'geo'
p2696
NsS'id'
p2697
I654966595264512
sa(dp2698
S'favorited'
p2699
I00
sS'truncated'
p2700
I00
sS'text'
p2701
S'S/O to my new followers #followback @itsbradscott @FlorianConnan @LadyLuvly860 @JKRILLZ @vagstar @TheSexFacts ... http://tmi.me/2UL9v'
p2702
sS'created_at'
p2703
S'Fri Nov 05 20:55:01 +0000 2010'
p2704
sS'retweeted'
p2705
I00
sS'coordinates'
p2706
NsS'in_reply_to_status_id'
p2707
NsS'place'
p2708
NsS'in_reply_to_screen_name'
p2709
NsS'retweet_count'
p2710
NsS'geo'
p2711
NsS'id'
p2712
I652326096343041
sa(dp2713
S'favorited'
p2714
I00
sS'truncated'
p2715
I00
sS'text'
p2716
S'#follow #follow @xx0jae @FOLLOWS_EXPRESS @KoolAidKleff @theKidMusiq @Djayrage @Firo96 @party_lover1 ... http://tmi.me/2UL3q'
p2717
sS'created_at'
p2718
S'Fri Nov 05 20:52:12 +0000 2010'
p2719
sS'retweeted'
p2720
I00
sS'coordinates'
p2721
NsS'in_reply_to_status_id'
p2722
NsS'place'
p2723
NsS'in_reply_to_screen_name'
p2724
NsS'retweet_count'
p2725
NsS'geo'
p2726
NsS'id'
p2727
I651619532279808
sa(dp2728
S'favorited'
p2729
I00
sS'truncated'
p2730
I00
sS'text'
p2731
S'S/O 2 @Time_capsule21 @quotestanhope @TheYoungsYall @JC_House @GNOthatnigga @innovate4jesus @ChaelMontgomery ... http://tmi.me/2UKUz'
p2732
sS'created_at'
p2733
S'Fri Nov 05 20:48:12 +0000 2010'
p2734
sS'retweeted'
p2735
I00
sS'coordinates'
p2736
NsS'in_reply_to_status_id'
p2737
NsS'place'
p2738
NsS'in_reply_to_screen_name'
p2739
NsS'retweet_count'
p2740
NsS'geo'
p2741
NsS'id'
p2742
I650609350938625
sa(dp2743
S'favorited'
p2744
I00
sS'truncated'
p2745
I00
sS'text'
p2746
S'S/O 2 my new followers #followback @Alize_CuteAss @InsiderPerks @Kneez114 @ZZ0 @DarnellWright @ArchieWonder @renateschooler'
p2747
sS'created_at'
p2748
S'Fri Nov 05 20:45:39 +0000 2010'
p2749
sS'retweeted'
p2750
I00
sS'coordinates'
p2751
NsS'in_reply_to_status_id'
p2752
NsS'place'
p2753
NsS'in_reply_to_screen_name'
p2754
NsS'retweet_count'
p2755
NsS'geo'
p2756
NsS'id'
p2757
I649970914951168
sa(dp2758
S'favorited'
p2759
I00
sS'truncated'
p2760
I00
sS'text'
p2761
VRT @Quotalicious: \u201cBe kind to unkind people - they need it the most\u201d  ~ Ashleigh Brilliant
p2762
sS'created_at'
p2763
S'Fri Nov 05 18:38:04 +0000 2010'
p2764
sS'retweeted'
p2765
I00
sS'coordinates'
p2766
NsS'in_reply_to_status_id'
p2767
NsS'place'
p2768
NsS'in_reply_to_screen_name'
p2769
NsS'retweet_count'
p2770
NsS'geo'
p2771
NsS'id'
p2772
I617861106110464
sa(dp2773
S'favorited'
p2774
I00
sS'truncated'
p2775
I00
sS'text'
p2776
VWhen life gives you lemons, make orange juice and leave the world wondering how the hell you did it.
p2777
sS'created_at'
p2778
S'Fri Nov 05 18:37:44 +0000 2010'
p2779
sS'retweeted'
p2780
I00
sS'coordinates'
p2781
NsS'in_reply_to_status_id'
p2782
NsS'place'
p2783
NsS'in_reply_to_screen_name'
p2784
NsS'retweet_count'
p2785
NsS'geo'
p2786
NsS'id'
p2787
I617776410533888
sa(dp2788
S'favorited'
p2789
I00
sS'truncated'
p2790
I00
sS'text'
p2791
S'I see u new followers ill give you a s/o when I get off my slaveship xoxo'
p2792
sS'created_at'
p2793
S'Fri Nov 05 16:05:34 +0000 2010'
p2794
sS'retweeted'
p2795
I00
sS'coordinates'
p2796
NsS'in_reply_to_status_id'
p2797
NsS'place'
p2798
NsS'in_reply_to_screen_name'
p2799
NsS'retweet_count'
p2800
NsS'geo'
p2801
NsS'id'
p2802
I579485581705216
sa(dp2803
S'favorited'
p2804
I00
sS'truncated'
p2805
I00
sS'text'
p2806
S'Hahahhahahaha RT @Ludacris: This Older White guy in airport just said 2 me "anyone ever tell u that u look like ... http://tmi.me/2U0pf'
p2807
sS'created_at'
p2808
S'Fri Nov 05 12:22:54 +0000 2010'
p2809
sS'retweeted'
p2810
I00
sS'coordinates'
p2811
NsS'in_reply_to_status_id'
p2812
NsS'place'
p2813
NsS'in_reply_to_screen_name'
p2814
NsS'retweet_count'
p2815
NsS'geo'
p2816
NsS'id'
p2817
I523449457967104
sa(dp2818
S'favorited'
p2819
I00
sS'truncated'
p2820
I00
sS'text'
p2821
VWhat do I do when I see someone EXTREMELY GORGEOUS? I STARE, I SMILE, AND WHEN I GET TIRED...I PUT THE MIRROR DOWN- GAURAV SIDANA
p2822
sS'created_at'
p2823
S'Fri Nov 05 12:22:23 +0000 2010'
p2824
sS'retweeted'
p2825
I00
sS'coordinates'
p2826
NsS'in_reply_to_status_id'
p2827
NsS'place'
p2828
NsS'in_reply_to_screen_name'
p2829
NsS'retweet_count'
p2830
NsS'geo'
p2831
NsS'id'
p2832
I523318549549056
sa(dp2833
S'favorited'
p2834
I00
sS'truncated'
p2835
I00
sS'text'
p2836
S'Lol ily :-) RT @jessieG7: @CHRISTIEnAMi &lt;3 &lt;3 youuu & yes safety lock ON :)'
p2837
sS'created_at'
p2838
S'Fri Nov 05 08:05:20 +0000 2010'
p2839
sS'retweeted'
p2840
I00
sS'coordinates'
p2841
NsS'in_reply_to_status_id'
p2842
NsS'place'
p2843
NsS'in_reply_to_screen_name'
p2844
NsS'retweet_count'
p2845
NsS'geo'
p2846
NsS'id'
p2847
I458630772039680
sa(dp2848
S'favorited'
p2849
I00
sS'truncated'
p2850
I00
sS'text'
p2851
S'#follownow @mickeygirl12345'
p2852
sS'created_at'
p2853
S'Fri Nov 05 08:05:04 +0000 2010'
p2854
sS'retweeted'
p2855
I00
sS'coordinates'
p2856
NsS'in_reply_to_status_id'
p2857
NsS'place'
p2858
NsS'in_reply_to_screen_name'
p2859
NsS'retweet_count'
p2860
NsS'geo'
p2861
NsS'id'
p2862
I458561071087616
sasg244
(lp2863
(dp2864
g247
I210247178
sg248
S'ScubaClan'
p2865
sa(dp2866
g247
I131260474
sg248
S'Alize_CuteAss'
p2867
sa(dp2868
g247
I119934562
sg248
S'SterlingSlvr925'
p2869
sa(dp2870
g247
I19312262
sg248
S'lionsclubsorg'
p2871
sa(dp2872
g247
I61111314
sg248
S'KoolAidKleff'
p2873
sa(dp2874
g247
I211522976
sg248
S'JessiaPanfil621'
p2875
sa(dp2876
g247
I137941990
sg248
S'spot2day'
p2877
sa(dp2878
g247
I30630900
sg248
S'theKidMusiq'
p2879
sa(dp2880
g247
I32688098
sg248
S'ThaRealMisfit'
p2881
sa(dp2882
g247
I36248261
sg248
S'Ya_HighNess_'
p2883
sa(dp2884
g247
I58280882
sg248
S'MetroFlats'
p2885
sa(dp2886
g247
I208303171
sg248
S'TweetSupremacy'
p2887
sa(dp2888
g247
I197756747
sg248
S'guz_putra'
p2889
sa(dp2890
g247
I211520688
sg248
S'MimosaArdis6439'
p2891
sa(dp2892
g247
I193657100
sg248
S'Bikya_Animals'
p2893
sa(dp2894
g247
I212051331
sg248
S'DROP_A_TAPE'
p2895
sa(dp2896
g247
I8179822
sg248
S'joankw'
p2897
sa(dp2898
g247
I17372877
sg248
S'MDoTMancini'
p2899
sa(dp2900
g247
I211154926
sg248
S'petaccol'
p2901
sa(dp2902
g247
I177021533
sg248
S'CoachCip'
p2903
sa(dp2904
g247
I126386873
sg248
S'samuelbinns'
p2905
sa(dp2906
g247
I97181817
sg248
S'Firo96'
p2907
sa(dp2908
g247
I22062132
sg248
S'WillySquared'
p2909
sa(dp2910
g247
I103708150
sg248
S'FOLLOWS_EXPRESS'
p2911
sa(dp2912
g247
I149710559
sg248
S'TeammFollowBack'
p2913
sa(dp2914
g247
I139100133
sg248
S'brieflondon'
p2915
sa(dp2916
g247
I130681675
sg248
S'JC_House'
p2917
sa(dp2918
g247
I173692452
sg248
S'HomeDep0tDeals'
p2919
sa(dp2920
g247
I72912498
sg248
S'THE_ALL_STARS'
p2921
sa(dp2922
g247
I22276232
sg248
S'successwalls'
p2923
sa(dp2924
g247
I84322347
sg248
S'aef_firenze'
p2925
sa(dp2926
g247
I67218195
sg248
S'odontosocial'
p2927
sa(dp2928
g247
I78543480
sg248
S'crispyoinkie'
p2929
sa(dp2930
g247
I147757994
sg248
S'divinelightmstr'
p2931
sa(dp2932
g247
I19943712
sg248
S'JCITYHUSTLA617'
p2933
sa(dp2934
g247
I209469802
sg248
S'tukangwadul'
p2935
sa(dp2936
g247
I193579433
sg248
S'OMG_RltyTV'
p2937
sa(dp2938
g247
I24276112
sg248
S'DarnellWright'
p2939
sa(dp2940
g247
I152359171
sg248
S'Time_capsule21'
p2941
sa(dp2942
g247
I200224991
sg248
S'xx0jae'
p2943
sa(dp2944
g247
I212620433
sg248
S'DreadsSoNice84'
p2945
sa(dp2946
g247
I204841358
sg248
S'GNOthatnigga'
p2947
sa(dp2948
g247
I63840123
sg248
S'brittonkelley'
p2949
sa(dp2950
g247
I112592592
sg248
S'NicoleGrunge'
p2951
sa(dp2952
g247
I32632622
sg248
S'PrincessRalle2'
p2953
sa(dp2954
g247
I208703637
sg248
S'MossiTech'
p2955
sa(dp2956
g247
I58801917
sg248
S'wesjohnson8'
p2957
sa(dp2958
g247
I163895452
sg248
S'innovate4jesus'
p2959
sa(dp2960
g247
I60121599
sg248
S'atty2thestars'
p2961
sa(dp2962
g247
I54044868
sg248
S'itsbradscott'
p2963
sa(dp2964
g247
I18073211
sg248
S'Gemstars'
p2965
sa(dp2966
g247
I18539631
sg248
S'StartupPro'
p2967
sa(dp2968
g247
I59041687
sg248
S'donnaww1'
p2969
sa(dp2970
g247
I204902539
sg248
S'KBDcarpetdisc'
p2971
sa(dp2972
g247
I199455265
sg248
S'NeSbieWiLson'
p2973
sa(dp2974
g247
I39021157
sg248
S'FleaKardashian'
p2975
sa(dp2976
g247
I47831217
sg248
S'WTFuLO_oKinAT'
p2977
sa(dp2978
g247
I160460820
sg248
S'ToolManReview'
p2979
sa(dp2980
g247
I212085211
sg248
S'AshxRafuls'
p2981
sa(dp2982
g247
I155679480
sg248
S'ConceitedReject'
p2983
sa(dp2984
g247
I19316268
sg248
S'CodyFromDha216'
p2985
sa(dp2986
g247
I171214640
sg248
S'TheOnlineTv'
p2987
sa(dp2988
g247
I161533919
sg248
S'HomeRepairMan'
p2989
sa(dp2990
g247
I180539984
sg248
S'HighVoltagegfx'
p2991
sa(dp2992
g247
I121213242
sg248
S'FlorianConnan'
p2993
sa(dp2994
g247
I112970794
sg248
S'ChaelMontgomery'
p2995
sa(dp2996
g247
I141365968
sg248
S'SexualQuotes'
p2997
sa(dp2998
g247
I188828548
sg248
S'TheYoungsYall'
p2999
sa(dp3000
g247
I16538349
sg248
S'Djayrage'
p3001
sa(dp3002
g247
I25159559
sg248
S'Publishes'
p3003
sa(dp3004
g247
I181479628
sg248
S'jasonphotograp'
p3005
sa(dp3006
g247
I135500676
sg248
S'ArchieWonder'
p3007
sa(dp3008
g247
I137414381
sg248
S'BigTomatoPizza'
p3009
sa(dp3010
g247
I194400930
sg248
S'GerrodJ'
p3011
sa(dp3012
g247
I77074157
sg248
S'SW33TlikePEPPER'
p3013
sa(dp3014
g247
I33278083
sg248
S'MisssRoxanne'
p3015
sa(dp3016
g247
I172735474
sg248
S'ChainFollow'
p3017
sa(dp3018
g247
I38953706
sg248
S'LadyLuvly860'
p3019
sa(dp3020
g247
I34413897
sg248
S'OriginalPING'
p3021
sa(dp3022
g247
I123042464
sg248
S'WhoAreTheyy'
p3023
sa(dp3024
g247
I77725938
sg248
S'Sweasy26'
p3025
sa(dp3026
g247
I74278144
sg248
S'quotestanhope'
p3027
sa(dp3028
g247
I69638678
sg248
S'rbndvd'
p3029
sa(dp3030
g247
I198318583
sg248
S'renateschooler'
p3031
sa(dp3032
g247
I148927168
sg248
S'Irenescool'
p3033
sa(dp3034
g247
I66038425
sg248
S'Quotalicious'
p3035
sa(dp3036
g247
I149012844
sg248
S'twMafia'
p3037
sa(dp3038
g247
I100666075
sg248
S'napoleonchou'
p3039
sa(dp3040
g247
I14950914
sg248
S'BenzRadio'
p3041
sa(dp3042
g247
I15246955
sg248
S'ohhandrew'
p3043
sa(dp3044
g247
I45526004
sg248
S'Kneez114'
p3045
sa(dp3046
g247
I100849362
sg248
S'JKRILLZ'
p3047
sa(dp3048
g247
I201796612
sg248
S'FollowMeSwagSOD'
p3049
sa(dp3050
g247
I146578987
sg248
S'luvMEsumHONKEYs'
p3051
sa(dp3052
g247
I17299929
sg248
S'InsiderPerks'
p3053
sa(dp3054
g247
I145868104
sg248
S'kuky_baby88'
p3055
sa(dp3056
g247
I201546596
sg248
S'SportsEveryday'
p3057
sa(dp3058
g247
I144527749
sg248
S'vagstar'
p3059
sa(dp3060
g247
I128003648
sg248
S'party_lover1'
p3061
sa(dp3062
g247
I28031609
sg248
S'ZZ0'
p3063
sasg294
(lp3064
(dp3065
g247
I25159559
sg248
S'Publishes'
p3066
sa(dp3067
g247
I32632622
sg248
S'PrincessRalle2'
p3068
sa(dp3069
g247
I171214640
sg248
S'TheOnlineTv'
p3070
sa(dp3071
g247
I77074157
sg248
S'SW33TlikePEPPER'
p3072
sa(dp3073
g247
I161533919
sg248
S'HomeRepairMan'
p3074
sa(dp3075
g247
I123042464
sg248
S'WhoAreTheyy'
p3076
sa(dp3077
g247
I147757994
sg248
S'divinelightmstr'
p3078
sa(dp3079
g247
I172735474
sg248
S'ChainFollow'
p3080
sa(dp3081
g247
I22062132
sg248
S'WillySquared'
p3082
sa(dp3083
g247
I212620433
sg248
S'DreadsSoNice84'
p3084
sa(dp3085
g247
I69638678
sg248
S'rbndvd'
p3086
sa(dp3087
g247
I208303171
sg248
S'TweetSupremacy'
p3088
sa(dp3089
g247
I19943712
sg248
S'JCITYHUSTLA617'
p3090
sa(dp3091
g247
I39021157
sg248
S'FleaKardashian'
p3092
sa(dp3093
g247
I112592592
sg248
S'NicoleGrunge'
p3094
sa(dp3095
g247
I8179822
sg248
S'joankw'
p3096
sa(dp3097
g247
I119934562
sg248
S'SterlingSlvr925'
p3098
sa(dp3099
g247
I164981192
sg248
S'belly187'
p3100
sa(dp3101
g247
I63840123
sg248
S'brittonkelley'
p3102
sa(dp3103
g247
I151192181
sg248
S'500ADAY'
p3104
sa(dp3105
g247
I24906723
sg248
S'thejuelzsantana'
p3106
sa(dp3107
g247
I8320242
sg248
S'QtipTheAbstract'
p3108
sa(dp3109
g247
I156132825
sg248
S'MikeTyson'
p3110
sa(dp3111
g247
I21148293
sg248
S'kathygriffin'
p3112
sa(dp3113
g247
I46576295
sg248
S'adamlambert'
p3114
sa(dp3115
g247
I20012204
sg248
S'usweekly'
p3116
sa(dp3117
g247
I26053643
sg248
S'jimmykimmel'
p3118
sa(dp3119
g247
I14515734
sg248
S'drdrew'
p3120
sa(dp3121
g247
I26090319
sg248
S'keshasuxx'
p3122
sa(dp3123
g247
I15224867
sg248
S'andersoncooper'
p3124
sa(dp3125
g247
I61818544
sg248
S'WorldsofGood'
p3126
sa(dp3127
g247
I130682467
sg248
S'Oprah_World'
p3128
sa(dp3129
g247
I151100153
sg248
S'Tonchy_Ceca'
p3130
sa(dp3131
g247
I75612668
sg248
S'iamscottpatters'
p3132
sa(dp3133
g247
I183601821
sg248
S'DGMNHELLRELL'
p3134
sa(dp3135
g247
I198824087
sg248
S'jakkitori'
p3136
sa(dp3137
g247
I198599935
sg248
S'jamillahmyers'
p3138
sa(dp3139
g247
I35305114
sg248
S'iGLOK_RUM'
p3140
sa(dp3141
g247
I174459856
sg248
S'realifeapparel'
p3142
sa(dp3143
g247
I97133436
sg248
S'realggrizzy'
p3144
sa(dp3145
g247
I115384577
sg248
S'KurischanDior'
p3146
sa(dp3147
g247
I19022242
sg248
S'Wakooz_RSS'
p3148
sa(dp3149
g247
I78543480
sg248
S'crispyoinkie'
p3150
sa(dp3151
g247
I58280882
sg248
S'MetroFlats'
p3152
sa(dp3153
g247
I201796612
sg248
S'FollowMeSwagSOD'
p3154
sa(dp3155
g247
I33278083
sg248
S'MisssRoxanne'
p3156
sa(dp3157
g247
I204902539
sg248
S'KBDcarpetdisc'
p3158
sa(dp3159
g247
I77725938
sg248
S'Sweasy26'
p3160
sa(dp3161
g247
I148927168
sg248
S'Irenescool'
p3162
sa(dp3163
g247
I88762025
sg248
S'IAmJessicax3'
p3164
sa(dp3165
g247
I139100133
sg248
S'brieflondon'
p3166
sa(dp3167
g247
I100666075
sg248
S'napoleonchou'
p3168
sa(dp3169
g247
I201546596
sg248
S'SportsEveryday'
p3170
sa(dp3171
g247
I137941990
sg248
S'spot2day'
p3172
sa(dp3173
g247
I211154926
sg248
S'petaccol'
p3174
sa(dp3175
g247
I208703637
sg248
S'MossiTech'
p3176
sa(dp3177
g247
I34413897
sg248
S'OriginalPING'
p3178
sa(dp3179
g247
I131260474
sg248
S'Alize_CuteAss'
p3180
sa(dp3181
g247
I45526004
sg248
S'Kneez114'
p3182
sa(dp3183
g247
I17299929
sg248
S'InsiderPerks'
p3184
sa(dp3185
g247
I84322347
sg248
S'aef_firenze'
p3186
sa(dp3187
g247
I18539631
sg248
S'StartupPro'
p3188
sa(dp3189
g247
I19312262
sg248
S'lionsclubsorg'
p3190
sa(dp3191
g247
I59041687
sg248
S'donnaww1'
p3192
sa(dp3193
g247
I198318583
sg248
S'renateschooler'
p3194
sa(dp3195
g247
I135500676
sg248
S'ArchieWonder'
p3196
sa(dp3197
g247
I24276112
sg248
S'DarnellWright'
p3198
sa(dp3199
g247
I28031609
sg248
S'ZZ0'
p3200
sa(dp3201
g247
I26885308
sg248
S'ashsimpsonwentz'
p3202
sa(dp3203
g247
I212085211
sg248
S'AshxRafuls'
p3204
sa(dp3205
g247
I188828548
sg248
S'TheYoungsYall'
p3206
sa(dp3207
g247
I112970794
sg248
S'ChaelMontgomery'
p3208
sa(dp3209
g247
I163895452
sg248
S'innovate4jesus'
p3210
sa(dp3211
g247
I204841358
sg248
S'GNOthatnigga'
p3212
sa(dp3213
g247
I14950914
sg248
S'BenzRadio'
p3214
sa(dp3215
g247
I137414381
sg248
S'BigTomatoPizza'
p3216
sa(dp3217
g247
I177021533
sg248
S'CoachCip'
p3218
sa(dp3219
g247
I152359171
sg248
S'Time_capsule21'
p3220
sa(dp3221
g247
I15246955
sg248
S'ohhandrew'
p3222
sa(dp3223
g247
I199455265
sg248
S'NeSbieWiLson'
p3224
sa(dp3225
g247
I47831217
sg248
S'WTFuLO_oKinAT'
p3226
sa(dp3227
g247
I17372877
sg248
S'MDoTMancini'
p3228
sa(dp3229
g247
I194400930
sg248
S'GerrodJ'
p3230
sa(dp3231
g247
I200224991
sg248
S'xx0jae'
p3232
sa(dp3233
g247
I19316268
sg248
S'CodyFromDha216'
p3234
sa(dp3235
g247
I209469802
sg248
S'tukangwadul'
p3236
sa(dp3237
g247
I38953706
sg248
S'LadyLuvly860'
p3238
sa(dp3239
g247
I30630900
sg248
S'theKidMusiq'
p3240
sa(dp3241
g247
I24975381
sg248
S'so_luvable'
p3242
sa(dp3243
g247
I100849362
sg248
S'JKRILLZ'
p3244
sa(dp3245
g247
I121213242
sg248
S'FlorianConnan'
p3246
sa(dp3247
g247
I54044868
sg248
S'itsbradscott'
p3248
sa(dp3249
g247
I197756747
sg248
S'guz_putra'
p3250
sa(dp3251
g247
I212051331
sg248
S'DROP_A_TAPE'
p3252
sa(dp3253
g247
I146578987
sg248
S'luvMEsumHONKEYs'
p3254
sa(dp3255
g247
I128003648
sg248
S'party_lover1'
p3256
sa(dp3257
g247
I97181817
sg248
S'Firo96'
p3258
sa(dp3259
g247
I16538349
sg248
S'Djayrage'
p3260
sa(dp3261
g247
I61111314
sg248
S'KoolAidKleff'
p3262
sa(dp3263
g247
I103708150
sg248
S'FOLLOWS_EXPRESS'
p3264
sasg248
g1605
sg393
g394
(S'\x07\xda\x0b\x06\x142\x14\t\xce/'
p3265
tp3266
Rp3267
sa(dp3268
g2
(lp3269
sg244
(lp3270
(dp3271
g247
I199288584
sg248
S'soundshoremedia'
p3272
sa(dp3273
g247
I86166766
sg248
S'CaramelTwizzler'
p3274
sa(dp3275
g247
I50804577
sg248
S'Tanya_bff7DCT'
p3276
sa(dp3277
g247
I132855356
sg248
S'HOODSTATUSDJS'
p3278
sa(dp3279
g247
I174446976
sg248
S'nagatorr'
p3280
sa(dp3281
g247
I210897640
sg248
S'StockTipster'
p3282
sa(dp3283
g247
I140428342
sg248
S'yzabelah'
p3284
sa(dp3285
g247
I66180450
sg248
S'_SandeepSandhu_'
p3286
sa(dp3287
g247
I16703058
sg248
S'BraveLad'
p3288
sa(dp3289
g247
I87333565
sg248
S'Yel0ou'
p3290
sa(dp3291
g247
I197062459
sg248
S'FrostDefense'
p3292
sa(dp3293
g247
I117626135
sg248
S'MrMarketer1'
p3294
sa(dp3295
g247
I112438314
sg248
S'DavidJester'
p3296
sa(dp3297
g247
I149454242
sg248
S'Pre_eminence'
p3298
sa(dp3299
g247
I181045253
sg248
S'DrionCT'
p3300
sa(dp3301
g247
I20148513
sg248
S'Torch762'
p3302
sa(dp3303
g247
I43740591
sg248
S'zippycart'
p3304
sa(dp3305
g247
I16396525
sg248
S'donniehoover'
p3306
sa(dp3307
g247
I175840588
sg248
S'nickelback6'
p3308
sa(dp3309
g247
I105455496
sg248
S'verro_teena'
p3310
sa(dp3311
g247
I107516440
sg248
S'classmom'
p3312
sa(dp3313
g247
I49822189
sg248
S'ThatNiggaPope'
p3314
sa(dp3315
g247
I37244927
sg248
S'Take2seconds'
p3316
sa(dp3317
g247
I65587134
sg248
S'2BitViews'
p3318
sa(dp3319
g247
I192671198
sg248
S'AChristianBelle'
p3320
sa(dp3321
g247
I18485119
sg248
S'yaskysteve'
p3322
sa(dp3323
g247
I163184868
sg248
S'rahmanmia'
p3324
sa(dp3325
g247
I21631547
sg248
S'UWTarrant'
p3326
sa(dp3327
g247
I154068991
sg248
S'mahbobbd'
p3328
sa(dp3329
g247
I90949534
sg248
S'JzlBPrtyn'
p3330
sa(dp3331
g247
I137726388
sg248
S'monirbd10'
p3332
sa(dp3333
g247
I196115929
sg248
S'SWYPIT'
p3334
sa(dp3335
g247
I180210691
sg248
S'NLCYCLE'
p3336
sa(dp3337
g247
I187183178
sg248
S'hunting_knives'
p3338
sa(dp3339
g247
I97641684
sg248
S'sxc_sami'
p3340
sa(dp3341
g247
I43519478
sg248
S'TheBumpMeister'
p3342
sa(dp3343
g247
I33377381
sg248
S'PatrickDESMET'
p3344
sa(dp3345
g247
I26781109
sg248
S'NancyDrewCoach'
p3346
sa(dp3347
g247
I187883786
sg248
S'milchstrasse666'
p3348
sa(dp3349
g247
I155548293
sg248
S'JBShawtyLove'
p3350
sa(dp3351
g247
I179038072
sg248
S'Golf_Disc'
p3352
sa(dp3353
g247
I37976435
sg248
S'Tradepal'
p3354
sa(dp3355
g247
I198286466
sg248
S'cokerfloors'
p3356
sa(dp3357
g247
I179631283
sg248
S'318mac90ty'
p3358
sa(dp3359
g247
I115877581
sg248
S'TheAnthonyRyan'
p3360
sa(dp3361
g247
I173733739
sg248
S'Master_Elite21'
p3362
sa(dp3363
g247
I197153403
sg248
S'FlyGuy_Reap'
p3364
sa(dp3365
g247
I35791250
sg248
S'MasterHunglo'
p3366
sa(dp3367
g247
I142679660
sg248
S'Alexa_Glambert'
p3368
sa(dp3369
g247
I14010612
sg248
S'AaronPerlut'
p3370
sa(dp3371
g247
I122163160
sg248
S'AudienceExperts'
p3372
sa(dp3373
g247
I151214876
sg248
S'JeanneMFraser'
p3374
sa(dp3375
g247
I137234791
sg248
S'RealeyezApparel'
p3376
sa(dp3377
g247
I22254576
sg248
S'SJTrotter'
p3378
sa(dp3379
g247
I194093631
sg248
S'JvillegasVilLe'
p3380
sa(dp3381
g247
I30464208
sg248
S'MoversEdge'
p3382
sa(dp3383
g247
I173477275
sg248
S'Claimitback'
p3384
sa(dp3385
g247
I15576494
sg248
S'personhoodusa'
p3386
sa(dp3387
g247
I165563781
sg248
S'CyberBizTweets'
p3388
sa(dp3389
g247
I177941539
sg248
S'Life4Health'
p3390
sa(dp3391
g247
I74353089
sg248
S'Joanne_chase'
p3392
sa(dp3393
g247
I65812029
sg248
S'TreniaToday'
p3394
sa(dp3395
g247
I25792679
sg248
S'PureNaturalDiva'
p3396
sa(dp3397
g247
I116237106
sg248
S'scoresfm'
p3398
sa(dp3399
g247
I106946128
sg248
S'FreeTheEmpire'
p3400
sa(dp3401
g247
I20530182
sg248
S'RonSloanSite'
p3402
sa(dp3403
g247
I106779268
sg248
S'anitasaid'
p3404
sa(dp3405
g247
I184222149
sg248
S'PrintaPlanner'
p3406
sa(dp3407
g247
I42754142
sg248
S'williamsford'
p3408
sa(dp3409
g247
I18914991
sg248
S'sevdaproducer'
p3410
sa(dp3411
g247
I72167203
sg248
S'chocolatekiddd'
p3412
sa(dp3413
g247
I16150075
sg248
S'MichaelMillman'
p3414
sa(dp3415
g247
I57117519
sg248
S'wanderingbiker'
p3416
sa(dp3417
g247
I126419160
sg248
S'ToyaDiamondz'
p3418
sa(dp3419
g247
I120545805
sg248
S'HS_Viana'
p3420
sa(dp3421
g247
I23423779
sg248
S'AngelsKnocking'
p3422
sa(dp3423
g247
I166561838
sg248
S'Justins_babey'
p3424
sa(dp3425
g247
I140543682
sg248
S'americandream_v'
p3426
sa(dp3427
g247
I202322623
sg248
S'pastor_ray_mott'
p3428
sa(dp3429
g247
I108562681
sg248
S'terrenceQuotes'
p3430
sa(dp3431
g247
I83137581
sg248
S'Eclectic_Review'
p3432
sa(dp3433
g247
I204073011
sg248
S'FollowMeSo'
p3434
sa(dp3435
g247
I202870263
sg248
S'nutshell_music'
p3436
sa(dp3437
g247
I180211177
sg248
S'dklinh_progirl'
p3438
sa(dp3439
g247
I194360885
sg248
S'JPHaddadio'
p3440
sa(dp3441
g247
I202766656
sg248
S'Jessica1896'
p3442
sa(dp3443
g247
I150534673
sg248
S'airinamarxie'
p3444
sa(dp3445
g247
I52498333
sg248
S'infinitealoe'
p3446
sa(dp3447
g247
I18213546
sg248
S'JohnZajaros'
p3448
sa(dp3449
g247
I30495334
sg248
S'BeeGagaFelton'
p3450
sa(dp3451
g247
I21647381
sg248
S'bagel_aka_babyb'
p3452
sa(dp3453
g247
I56293707
sg248
S'Ujjwal_krishna'
p3454
sa(dp3455
g247
I105943695
sg248
S'Ekamushroom'
p3456
sa(dp3457
g247
I108425455
sg248
S'katie24x7'
p3458
sa(dp3459
g247
I15745139
sg248
S'ToddGilmore'
p3460
sa(dp3461
g247
I188711259
sg248
S'KidJournalistNZ'
p3462
sa(dp3463
g247
I35779792
sg248
S'angels510'
p3464
sa(dp3465
g247
I127700492
sg248
S'SavvyLikeMe'
p3466
sa(dp3467
g247
I192094924
sg248
S'pivnoe_puziko'
p3468
sa(dp3469
g247
I30173948
sg248
S'avaiIable'
p3470
sasg294
(lp3471
(dp3472
g247
I173733739
sg248
S'Master_Elite21'
p3473
sa(dp3474
g247
I57621411
sg248
S'iiksItsika'
p3475
sa(dp3476
g247
I38953706
sg248
S'LadyLuvly860'
p3477
sa(dp3478
g247
I66689301
sg248
S'tyahm'
p3479
sa(dp3480
g247
I23289734
sg248
S'dandydar'
p3481
sa(dp3482
g247
I128461765
sg248
S'athmaya'
p3483
sa(dp3484
g247
I45257017
sg248
S'liviebelieber'
p3485
sa(dp3486
g247
I23027134
sg248
S'fwbla'
p3487
sa(dp3488
g247
I96679132
sg248
S'nykid93'
p3489
sa(dp3490
g247
I203480749
sg248
S'TeamKennyWilson'
p3491
sa(dp3492
g247
I122163160
sg248
S'AudienceExperts'
p3493
sa(dp3494
g247
I106946128
sg248
S'FreeTheEmpire'
p3495
sa(dp3496
g247
I198738296
sg248
S'amberdawnplum'
p3497
sa(dp3498
g247
I21631547
sg248
S'UWTarrant'
p3499
sa(dp3500
g247
I107516440
sg248
S'classmom'
p3501
sa(dp3502
g247
I34204645
sg248
S'MizThikRedBone'
p3503
sa(dp3504
g247
I65587134
sg248
S'2BitViews'
p3505
sa(dp3506
g247
I188024249
sg248
S'andylacro'
p3507
sa(dp3508
g247
I161385218
sg248
S'GIRClub'
p3509
sa(dp3510
g247
I87076077
sg248
S'laundryinfo'
p3511
sa(dp3512
g247
I22087167
sg248
S'robklippel'
p3513
sa(dp3514
g247
I83620204
sg248
S'promoathletes'
p3515
sa(dp3516
g247
I177613733
sg248
S'MYKAVELI1300'
p3517
sa(dp3518
g247
I184222149
sg248
S'PrintaPlanner'
p3519
sa(dp3520
g247
I157781032
sg248
S'StrangeMoneyENT'
p3521
sa(dp3522
g247
I30797473
sg248
S'ReLLz4President'
p3523
sa(dp3524
g247
I204884965
sg248
S'LetsRageTX'
p3525
sa(dp3526
g247
I159660107
sg248
S'xtremebody4u'
p3527
sa(dp3528
g247
I179631283
sg248
S'318mac90ty'
p3529
sa(dp3530
g247
I77329593
sg248
S'InlawsOutlaws'
p3531
sa(dp3532
g247
I118888875
sg248
S'PeaceActivist1'
p3533
sa(dp3534
g247
I140543682
sg248
S'americandream_v'
p3535
sa(dp3536
g247
I5775622
sg248
S'paynter'
p3537
sa(dp3538
g247
I199038277
sg248
S'tomsdaiquiri'
p3539
sa(dp3540
g247
I113836195
sg248
S'_JuiceeyTee_'
p3541
sa(dp3542
g247
I41875344
sg248
S'DonValenteTexas'
p3543
sa(dp3544
g247
I198286466
sg248
S'cokerfloors'
p3545
sa(dp3546
g247
I41045020
sg248
S'NoniSharon'
p3547
sa(dp3548
g247
I149141298
sg248
S'thegreatme56'
p3549
sa(dp3550
g247
I22677701
sg248
S'SearsBlueCrewHA'
p3551
sa(dp3552
g247
I105778652
sg248
S'voiceoftexas'
p3553
sa(dp3554
g247
I16159613
sg248
S'PersuasionTips'
p3555
sa(dp3556
g247
I16396525
sg248
S'donniehoover'
p3557
sa(dp3558
g247
I39130138
sg248
S'abovethelevel'
p3559
sa(dp3560
g247
I54304240
sg248
S'submit_articles'
p3561
sa(dp3562
g247
I105780584
sg248
S'ifollowbackboy'
p3563
sa(dp3564
g247
I37244927
sg248
S'Take2seconds'
p3565
sa(dp3566
g247
I93694951
sg248
S'TopStarDiamond'
p3567
sa(dp3568
g247
I39172665
sg248
S'gigway'
p3569
sa(dp3570
g247
I117626135
sg248
S'MrMarketer1'
p3571
sa(dp3572
g247
I118208401
sg248
S'DoggieMover'
p3573
sa(dp3574
g247
I30173948
sg248
S'avaiIable'
p3575
sa(dp3576
g247
I19729690
sg248
S'Mallikarjunan'
p3577
sa(dp3578
g247
I187183178
sg248
S'hunting_knives'
p3579
sa(dp3580
g247
I57117519
sg248
S'wanderingbiker'
p3581
sa(dp3582
g247
I179038072
sg248
S'Golf_Disc'
p3583
sa(dp3584
g247
I15745139
sg248
S'ToddGilmore'
p3585
sa(dp3586
g247
I25792679
sg248
S'PureNaturalDiva'
p3587
sa(dp3588
g247
I65812029
sg248
S'TreniaToday'
p3589
sa(dp3590
g247
I109024808
sg248
S'DallasRVSupsale'
p3591
sa(dp3592
g247
I39136803
sg248
S'AloeTropical'
p3593
sa(dp3594
g247
I32121888
sg248
S'1ststarfighter'
p3595
sa(dp3596
g247
I39179489
sg248
S'hitpopmusic'
p3597
sa(dp3598
g247
I18485119
sg248
S'yaskysteve'
p3599
sa(dp3600
g247
I111088585
sg248
S'BrettDMartin'
p3601
sa(dp3602
g247
I20148513
sg248
S'Torch762'
p3603
sa(dp3604
g247
I38074970
sg248
S'Smallcapweekly'
p3605
sa(dp3606
g247
I161641573
sg248
S'StockBanana_LLC'
p3607
sa(dp3608
g247
I108127291
sg248
S'Chuck__Jones'
p3609
sa(dp3610
g247
I43909030
sg248
S'SmlCapTrdr'
p3611
sa(dp3612
g247
I85901858
sg248
S'UndiscoveredStx'
p3613
sa(dp3614
g247
I47640204
sg248
S'bodybuilder3191'
p3615
sa(dp3616
g247
I28844639
sg248
S'Electromedicine'
p3617
sa(dp3618
g247
I140609247
sg248
S'natalies_mom'
p3619
sa(dp3620
g247
I114968437
sg248
S'sysrisk'
p3621
sa(dp3622
g247
I188816516
sg248
S'jcb_spender'
p3623
sa(dp3624
g247
I67807796
sg248
S'TheZuckerTeam'
p3625
sa(dp3626
g247
I90244682
sg248
S'VondyworldTexas'
p3627
sa(dp3628
g247
I37976435
sg248
S'Tradepal'
p3629
sa(dp3630
g247
I112607381
sg248
S'flourdesign'
p3631
sa(dp3632
g247
I96196608
sg248
S'BizTipsDaily'
p3633
sa(dp3634
g247
I121259755
sg248
S'emgoficial'
p3635
sa(dp3636
g247
I15723345
sg248
S'franklogic'
p3637
sa(dp3638
g247
I32400783
sg248
S'Gambit_Photos'
p3639
sa(dp3640
g247
I137726388
sg248
S'monirbd10'
p3641
sa(dp3642
g247
I20832867
sg248
S'Bezmoney'
p3643
sa(dp3644
g247
I154068991
sg248
S'mahbobbd'
p3645
sa(dp3646
g247
I132246599
sg248
S'ThePennant'
p3647
sa(dp3648
g247
I16613700
sg248
S'MaryDeMuth'
p3649
sa(dp3650
g247
I205864072
sg248
S'BTRGirl_XOXO'
p3651
sa(dp3652
g247
I103241214
sg248
S'MehrEuro'
p3653
sa(dp3654
g247
I31342099
sg248
S'dcfallstad'
p3655
sa(dp3656
g247
I14870858
sg248
S'AliFortenberry'
p3657
sa(dp3658
g247
I118118578
sg248
S'techbuzzz'
p3659
sa(dp3660
g247
I30495334
sg248
S'BeeGagaFelton'
p3661
sa(dp3662
g247
I202870263
sg248
S'nutshell_music'
p3663
sa(dp3664
g247
I183703162
sg248
S'ContentMasters'
p3665
sa(dp3666
g247
I164029620
sg248
S'SocialDisney'
p3667
sa(dp3668
g247
I186517471
sg248
S'GhostContent'
p3669
sa(dp3670
g247
I165832714
sg248
S'ScottPlum'
p3671
sasg248
g2865
sg393
g394
(S'\x07\xda\x0b\x06\x142\x1e\x06\x7f\xbb'
p3672
tp3673
Rp3674
sa(dp3675
g2
(lp3676
(dp3677
S'favorited'
p3678
I00
sS'truncated'
p3679
I00
sS'text'
p3680
S'Tweet Tweet!'
p3681
sS'created_at'
p3682
S'Mon Sep 27 02:30:26 +0000 2010'
p3683
sS'retweeted'
p3684
I00
sS'coordinates'
p3685
NsS'in_reply_to_status_id'
p3686
NsS'place'
p3687
NsS'in_reply_to_screen_name'
p3688
NsS'retweet_count'
p3689
NsS'geo'
p3690
NsS'id'
p3691
I25648347574
sasg244
(lp3692
(dp3693
g247
I57914321
sg248
S'PatrickRockey'
p3694
sa(dp3695
g247
I179771579
sg248
S'DREEON'
p3696
sa(dp3697
g247
I44516301
sg248
S'radioladiorobin'
p3698
sa(dp3699
g247
I97706228
sg248
S'JorJordollars'
p3700
sa(dp3701
g247
I85886156
sg248
S'mediaholly'
p3702
sa(dp3703
g247
I19244250
sg248
S'joelgillie'
p3704
sa(dp3705
g247
I176148129
sg248
S'Pieces810'
p3706
sa(dp3707
g247
I108727529
sg248
S'EverettePrice'
p3708
sa(dp3709
g247
I50637045
sg248
S'Britt_Holder'
p3710
sa(dp3711
g247
I190050345
sg248
S'StyleWthinReach'
p3712
sa(dp3713
g247
I5392192
sg248
S'JACOBCURTIS'
p3714
sa(dp3715
g247
I97298629
sg248
S'PirateDuke'
p3716
sa(dp3717
g247
I185852508
sg248
S'ReedAndrewsWTKR'
p3718
sa(dp3719
g247
I176676860
sg248
S'DumbYankee'
p3720
sa(dp3721
g247
I12091382
sg248
S'becuhh'
p3722
sa(dp3723
g247
I176653463
sg248
S'OldFuckinCurtis'
p3724
sa(dp3725
g247
I23455765
sg248
S'BlaineStewart'
p3726
sa(dp3727
g247
I67707667
sg248
S'LilScrAnj'
p3728
sa(dp3729
g247
I26592877
sg248
S'terrence_blake'
p3730
sa(dp3731
g247
I159230403
sg248
S'TheRealPITTS'
p3732
sa(dp3733
g247
I74603919
sg248
S'ToddCorillo'
p3734
sa(dp3735
g247
I125619141
sg248
S'lailamuhammad'
p3736
sa(dp3737
g247
I203454966
sg248
S'Djangaw'
p3738
sa(dp3739
g247
I16102083
sg248
S'mkramer4'
p3740
sa(dp3741
g247
I16116296
sg248
S'holyfieldTV'
p3742
sa(dp3743
g247
I16517825
sg248
S'rpnickson'
p3744
sa(dp3745
g247
I17562737
sg248
S'Zonozi'
p3746
sa(dp3747
g247
I20809837
sg248
S'CyrusTibbs'
p3748
sa(dp3749
g247
I18499308
sg248
S'DanSpuller'
p3750
sa(dp3751
g247
I155040897
sg248
S'onelittlebecca'
p3752
sasg294
(lp3753
(dp3754
g247
I20809837
sg248
S'CyrusTibbs'
p3755
sa(dp3756
g247
I116313669
sg248
S'LissaMane'
p3757
sa(dp3758
g247
I97298629
sg248
S'PirateDuke'
p3759
sa(dp3760
g247
I20133322
sg248
S'TheGr8PMan'
p3761
sa(dp3762
g247
I18520263
sg248
S'balmerchick'
p3763
sa(dp3764
g247
I173609731
sg248
S'thomashenry21'
p3765
sa(dp3766
g247
I14923676
sg248
S'JackMack357'
p3767
sa(dp3768
g247
I26592877
sg248
S'terrence_blake'
p3769
sa(dp3770
g247
I176148129
sg248
S'Pieces810'
p3771
sa(dp3772
g247
I74603919
sg248
S'ToddCorillo'
p3773
sa(dp3774
g247
I190395133
sg248
S'JerseyJokester'
p3775
sa(dp3776
g247
I50637045
sg248
S'Britt_Holder'
p3777
sa(dp3778
g247
I27757062
sg248
S'LinesReedLines'
p3779
sa(dp3780
g247
I18293381
sg248
S'ornamentea'
p3781
sa(dp3782
g247
I19244250
sg248
S'joelgillie'
p3783
sa(dp3784
g247
I54087878
sg248
S'chunkecu'
p3785
sa(dp3786
g247
I68043457
sg248
S'TiaJoy29'
p3787
sa(dp3788
g247
I16517825
sg248
S'rpnickson'
p3789
sa(dp3790
g247
I33261220
sg248
S'DavidBYoo'
p3791
sa(dp3792
g247
I18767190
sg248
S'MusicSoldiers'
p3793
sa(dp3794
g247
I16116296
sg248
S'holyfieldTV'
p3795
sa(dp3796
g247
I26448586
sg248
S'Josh_Ellis'
p3797
sa(dp3798
g247
I44516301
sg248
S'radioladiorobin'
p3799
sa(dp3800
g247
I18499308
sg248
S'DanSpuller'
p3801
sa(dp3802
g247
I60797952
sg248
S'nadiaw10'
p3803
sa(dp3804
g247
I91398608
sg248
S'LauraAshley2012'
p3805
sa(dp3806
g247
I66279299
sg248
S'zachkatagiri'
p3807
sa(dp3808
g247
I17562737
sg248
S'Zonozi'
p3809
sa(dp3810
g247
I103666887
sg248
S'TheZenMoment'
p3811
sa(dp3812
g247
I15334868
sg248
S'allimorgan'
p3813
sa(dp3814
g247
I17926169
sg248
S'PumpkinBred'
p3815
sa(dp3816
g247
I14820450
sg248
S'nougat23'
p3817
sa(dp3818
g247
I33924339
sg248
S'NCCUradio'
p3819
sa(dp3820
g247
I130332715
sg248
S'amberleyfrench'
p3821
sa(dp3822
g247
I15575235
sg248
S'eor'
p3823
sa(dp3824
g247
I29439145
sg248
S'jeh0101'
p3825
sa(dp3826
g247
I115093090
sg248
S'AnsonBandB'
p3827
sa(dp3828
g247
I85170770
sg248
S'DerrickFoss'
p3829
sa(dp3830
g247
I43374675
sg248
S'AudleyC'
p3831
sa(dp3832
g247
I52911301
sg248
S'_keator'
p3833
sa(dp3834
g247
I20309014
sg248
S'divinelydi'
p3835
sa(dp3836
g247
I169316111
sg248
S'Oldirtyslola'
p3837
sa(dp3838
g247
I26337948
sg248
S'RealDanTordjman'
p3839
sa(dp3840
g247
I23455765
sg248
S'BlaineStewart'
p3841
sa(dp3842
g247
I12091382
sg248
S'becuhh'
p3843
sa(dp3844
g247
I125619141
sg248
S'lailamuhammad'
p3845
sa(dp3846
g247
I85886156
sg248
S'mediaholly'
p3847
sa(dp3848
g247
I176653463
sg248
S'OldFuckinCurtis'
p3849
sa(dp3850
g247
I108727529
sg248
S'EverettePrice'
p3851
sa(dp3852
g247
I102860009
sg248
S'Cbrentriggs'
p3853
sa(dp3854
g247
I97706228
sg248
S'JorJordollars'
p3855
sa(dp3856
g247
I155040897
sg248
S'onelittlebecca'
p3857
sa(dp3858
g247
I183032152
sg248
S'Tonybagofdonuts'
p3859
sa(dp3860
g247
I159230403
sg248
S'TheRealPITTS'
p3861
sa(dp3862
g247
I25904908
sg248
S'JRsully'
p3863
sa(dp3864
g247
I179771579
sg248
S'DREEON'
p3865
sa(dp3866
g247
I182545260
sg248
S'WTKRjobs'
p3867
sa(dp3868
g247
I26096164
sg248
S'caitlinamcguire'
p3869
sa(dp3870
g247
I190050345
sg248
S'StyleWthinReach'
p3871
sa(dp3872
g247
I75730394
sg248
S'OneRaceOnePlace'
p3873
sa(dp3874
g247
I67707667
sg248
S'LilScrAnj'
p3875
sasg248
g2286
sg393
g394
(S'\x07\xda\x0b\x06\x142+\x0e\x01#'
p3876
tp3877
Rp3878
sa(dp3879
g2
(lp3880
(dp3881
S'favorited'
p3882
I00
sS'truncated'
p3883
I00
sS'text'
p3884
S'@20Somethingrl imma need u to increase the fequency and the hilarity of your tweets'
p3885
sS'created_at'
p3886
S'Sat Nov 06 01:09:11 +0000 2010'
p3887
sS'retweeted'
p3888
I00
sS'coordinates'
p3889
NsS'in_reply_to_status_id'
p3890
I29107836475
sS'place'
p3891
NsS'in_reply_to_screen_name'
p3892
S'20Somethingrl'
p3893
sS'retweet_count'
p3894
NsS'geo'
p3895
NsS'id'
p3896
I716291786670082
sa(dp3897
S'favorited'
p3898
I00
sS'truncated'
p3899
I00
sS'text'
p3900
S'"U can\'t do shit when ur preggo except drink water And eat vegetables" via @jennhanopole'
p3901
sS'created_at'
p3902
S'Fri Nov 05 21:28:29 +0000 2010'
p3903
sS'retweeted'
p3904
I00
sS'coordinates'
p3905
NsS'in_reply_to_status_id'
p3906
NsS'place'
p3907
NsS'in_reply_to_screen_name'
p3908
NsS'retweet_count'
p3909
NsS'geo'
p3910
NsS'id'
p3911
I660749261217792
sa(dp3912
S'favorited'
p3913
I00
sS'truncated'
p3914
I00
sS'text'
p3915
S'#critterpic #rester http://twitpic.com/346zls'
p3916
sS'created_at'
p3917
S'Fri Nov 05 21:23:14 +0000 2010'
p3918
sS'retweeted'
p3919
I00
sS'coordinates'
p3920
NsS'in_reply_to_status_id'
p3921
NsS'place'
p3922
NsS'in_reply_to_screen_name'
p3923
NsS'retweet_count'
p3924
NsS'geo'
p3925
NsS'id'
p3926
I659427715719168
sa(dp3927
S'favorited'
p3928
I00
sS'truncated'
p3929
I00
sS'text'
p3930
S"@mitchfatel isn't It great, they stay crunchy in milk"
p3931
sS'created_at'
p3932
S'Fri Nov 05 20:08:27 +0000 2010'
p3933
sS'retweeted'
p3934
I00
sS'coordinates'
p3935
NsS'in_reply_to_status_id'
p3936
I626611707707393
sS'place'
p3937
NsS'in_reply_to_screen_name'
p3938
S'mitchfatel'
p3939
sS'retweet_count'
p3940
NsS'geo'
p3941
NsS'id'
p3942
I640606913171456
sa(dp3943
S'favorited'
p3944
I00
sS'truncated'
p3945
I00
sS'text'
p3946
S'Every school is required to have one lunchlady that also pulls double duty as a bus driver'
p3947
sS'created_at'
p3948
S'Fri Nov 05 19:46:42 +0000 2010'
p3949
sS'retweeted'
p3950
I00
sS'coordinates'
p3951
NsS'in_reply_to_status_id'
p3952
NsS'place'
p3953
NsS'in_reply_to_screen_name'
p3954
NsS'retweet_count'
p3955
NsS'geo'
p3956
NsS'id'
p3957
I635133937844224
sa(dp3958
S'favorited'
p3959
I00
sS'truncated'
p3960
I00
sS'text'
p3961
S'Drunk friend of mine had to puke while sittin on the toilet. His drunk mind thought he could get it through the hole between his legs'
p3962
sS'created_at'
p3963
S'Fri Nov 05 19:31:00 +0000 2010'
p3964
sS'retweeted'
p3965
I00
sS'coordinates'
p3966
NsS'in_reply_to_status_id'
p3967
NsS'place'
p3968
NsS'in_reply_to_screen_name'
p3969
NsS'retweet_count'
p3970
NsS'geo'
p3971
NsS'id'
p3972
I631182278529024
sa(dp3973
S'favorited'
p3974
I00
sS'truncated'
p3975
I00
sS'text'
p3976
S'I will be giving out drunk, extra-handsy hugs at the bar tonight after 1 am'
p3977
sS'created_at'
p3978
S'Fri Nov 05 19:26:49 +0000 2010'
p3979
sS'retweeted'
p3980
I00
sS'coordinates'
p3981
NsS'in_reply_to_status_id'
p3982
NsS'place'
p3983
NsS'in_reply_to_screen_name'
p3984
NsS'retweet_count'
p3985
NsS'geo'
p3986
NsS'id'
p3987
I630129390788609
sa(dp3988
S'favorited'
p3989
I00
sS'truncated'
p3990
I00
sS'text'
p3991
S'@stugraham1981 thank you sir for your emails, you are both a scholar and a gentleman'
p3992
sS'created_at'
p3993
S'Fri Nov 05 16:58:45 +0000 2010'
p3994
sS'retweeted'
p3995
I00
sS'coordinates'
p3996
NsS'in_reply_to_status_id'
p3997
NsS'place'
p3998
NsS'in_reply_to_screen_name'
p3999
S'stugraham1981'
p4000
sS'retweet_count'
p4001
NsS'geo'
p4002
NsS'id'
p4003
I592866644590592
sa(dp4004
S'favorited'
p4005
I00
sS'truncated'
p4006
I00
sS'text'
p4007
S'@katie_paul the cat-tranq/addy-patch combo should make for an interesting afternoon #someonesgottadoit'
p4008
sS'created_at'
p4009
S'Fri Nov 05 16:37:49 +0000 2010'
p4010
sS'retweeted'
p4011
I00
sS'coordinates'
p4012
NsS'in_reply_to_status_id'
p4013
I584965624430592
sS'place'
p4014
NsS'in_reply_to_screen_name'
p4015
S'katie_paul'
p4016
sS'retweet_count'
p4017
NsS'geo'
p4018
NsS'id'
p4019
I587601522204672
sa(dp4020
S'favorited'
p4021
I00
sS'truncated'
p4022
I00
sS'text'
p4023
S'@holyfieldTV no. its Hickory.'
p4024
sS'created_at'
p4025
S'Fri Nov 05 16:31:02 +0000 2010'
p4026
sS'retweeted'
p4027
I00
sS'coordinates'
p4028
NsS'in_reply_to_status_id'
p4029
I578084625457152
sS'place'
p4030
NsS'in_reply_to_screen_name'
p4031
S'holyfieldTV'
p4032
sS'retweet_count'
p4033
NsS'geo'
p4034
NsS'id'
p4035
I585894503391232
sa(dp4036
S'favorited'
p4037
I00
sS'truncated'
p4038
I00
sS'text'
p4039
S"if @DumbYankee moves to DC he Mike could lose his #townie status as DC is technically a district..'Districtie' doesnt have the same ring"
p4040
sS'created_at'
p4041
S'Fri Nov 05 16:27:37 +0000 2010'
p4042
sS'retweeted'
p4043
I00
sS'coordinates'
p4044
NsS'in_reply_to_status_id'
p4045
NsS'place'
p4046
NsS'in_reply_to_screen_name'
p4047
NsS'retweet_count'
p4048
NsS'geo'
p4049
NsS'id'
p4050
I585032733294592
sa(dp4051
S'favorited'
p4052
I00
sS'truncated'
p4053
I00
sS'text'
p4054
S"Ya , i've encountered a few myself RT @JRsully @Pieces810 YEP"
p4055
sS'created_at'
p4056
S'Fri Nov 05 16:20:32 +0000 2010'
p4057
sS'retweeted'
p4058
I00
sS'coordinates'
p4059
NsS'in_reply_to_status_id'
p4060
NsS'place'
p4061
NsS'in_reply_to_screen_name'
p4062
NsS'retweet_count'
p4063
NsS'geo'
p4064
NsS'id'
p4065
I583250091188224
sa(dp4066
S'favorited'
p4067
I00
sS'truncated'
p4068
I00
sS'text'
p4069
S'#uknowwho just got a facebook it seems'
p4070
sS'created_at'
p4071
S'Fri Nov 05 16:04:16 +0000 2010'
p4072
sS'retweeted'
p4073
I00
sS'coordinates'
p4074
NsS'in_reply_to_status_id'
p4075
NsS'place'
p4076
NsS'in_reply_to_screen_name'
p4077
NsS'retweet_count'
p4078
NsS'geo'
p4079
NsS'id'
p4080
I579156538564608
sa(dp4081
S'favorited'
p4082
I00
sS'truncated'
p4083
I00
sS'text'
p4084
S'i came back home to find out that 80% of my graduating class still lives here, and 75% of them are musicians, sweet'
p4085
sS'created_at'
p4086
S'Fri Nov 05 15:40:10 +0000 2010'
p4087
sS'retweeted'
p4088
I00
sS'coordinates'
p4089
NsS'in_reply_to_status_id'
p4090
NsS'place'
p4091
NsS'in_reply_to_screen_name'
p4092
NsS'retweet_count'
p4093
NsS'geo'
p4094
NsS'id'
p4095
I573094334828544
sa(dp4096
S'favorited'
p4097
I00
sS'truncated'
p4098
I00
sS'text'
p4099
S'gettin stared at whereever i go now, suck it Burling-town! #thenewtownie #towniecreek #NCedition'
p4100
sS'created_at'
p4101
S'Fri Nov 05 15:37:26 +0000 2010'
p4102
sS'retweeted'
p4103
I00
sS'coordinates'
p4104
NsS'in_reply_to_status_id'
p4105
NsS'place'
p4106
NsS'in_reply_to_screen_name'
p4107
NsS'retweet_count'
p4108
NsS'geo'
p4109
NsS'id'
p4110
I572404363436032
sa(dp4111
S'favorited'
p4112
I00
sS'truncated'
p4113
I00
sS'text'
p4114
S'@JRsully u need to pick the one that will put you in position to be the most successful the quickest, u already know which'
p4115
sS'created_at'
p4116
S'Fri Nov 05 15:35:52 +0000 2010'
p4117
sS'retweeted'
p4118
I00
sS'coordinates'
p4119
NsS'in_reply_to_status_id'
p4120
I562331620745217
sS'place'
p4121
NsS'in_reply_to_screen_name'
p4122
S'JRsully'
p4123
sS'retweet_count'
p4124
NsS'geo'
p4125
NsS'id'
p4126
I572008786038784
sa(dp4127
S'favorited'
p4128
I00
sS'truncated'
p4129
I00
sS'text'
p4130
S'@ms_shannonsmith get drunk off ur bonus And bestow more relationship tweets on us. They always make me glad im single'
p4131
sS'created_at'
p4132
S'Fri Nov 05 15:26:38 +0000 2010'
p4133
sS'retweeted'
p4134
I00
sS'coordinates'
p4135
NsS'in_reply_to_status_id'
p4136
I564362536296448
sS'place'
p4137
NsS'in_reply_to_screen_name'
p4138
S'ms_shannonsmith'
p4139
sS'retweet_count'
p4140
NsS'geo'
p4141
NsS'id'
p4142
I569685158395904
sa(dp4143
S'favorited'
p4144
I00
sS'truncated'
p4145
I00
sS'text'
p4146
S'@JRsully good luck u piece o shite'
p4147
sS'created_at'
p4148
S'Fri Nov 05 14:29:23 +0000 2010'
p4149
sS'retweeted'
p4150
I00
sS'coordinates'
p4151
NsS'in_reply_to_status_id'
p4152
I524542501982208
sS'place'
p4153
NsS'in_reply_to_screen_name'
p4154
S'JRsully'
p4155
sS'retweet_count'
p4156
NsS'geo'
p4157
NsS'id'
p4158
I555280202993665
sa(dp4159
S'favorited'
p4160
I00
sS'truncated'
p4161
I00
sS'text'
p4162
S'Got this pic in response 2 my CL add looking for a room to rent. Note the papertowels and open  vaseline  http://twitpic.com/343i8j'
p4163
sS'created_at'
p4164
S'Fri Nov 05 14:02:54 +0000 2010'
p4165
sS'retweeted'
p4166
I00
sS'coordinates'
p4167
NsS'in_reply_to_status_id'
p4168
NsS'place'
p4169
NsS'in_reply_to_screen_name'
p4170
NsS'retweet_count'
p4171
NsS'geo'
p4172
NsS'id'
p4173
I548612299816960
sa(dp4174
S'favorited'
p4175
I00
sS'truncated'
p4176
I00
sS'text'
p4177
S'My fav playground game was Red Rover, as a fat kid It was the one I Was best at'
p4178
sS'created_at'
p4179
S'Fri Nov 05 13:37:13 +0000 2010'
p4180
sS'retweeted'
p4181
I00
sS'coordinates'
p4182
NsS'in_reply_to_status_id'
p4183
NsS'place'
p4184
NsS'in_reply_to_screen_name'
p4185
NsS'retweet_count'
p4186
NsS'geo'
p4187
NsS'id'
p4188
I542152220217344
sasg244
(lp4189
(dp4190
g247
I204919803
sg248
S'CapmeroTM'
p4191
sa(dp4192
g247
I23446606
sg248
S'katie_paul'
p4193
sa(dp4194
g247
I72711057
sg248
S'MKSUPREME'
p4195
sa(dp4196
g247
I45947391
sg248
S'ms_shannonsmith'
p4197
sa(dp4198
g247
I208810996
sg248
S'THISizBAHERI'
p4199
sa(dp4200
g247
I105514267
sg248
S'reallylatenews'
p4201
sa(dp4202
g247
I43807386
sg248
S'stearns31'
p4203
sa(dp4204
g247
I117467531
sg248
S'DonCagle2'
p4205
sa(dp4206
g247
I28178423
sg248
S'Jilljoslin'
p4207
sa(dp4208
g247
I195546843
sg248
S'AnjaliHemphill'
p4209
sa(dp4210
g247
I188522460
sg248
S'Sammbino'
p4211
sa(dp4212
g247
I67707667
sg248
S'LilScrAnj'
p4213
sa(dp4214
g247
I123179595
sg248
S'JMurdErz'
p4215
sa(dp4216
g247
I92619019
sg248
S'tdubrose'
p4217
sa(dp4218
g247
I183032152
sg248
S'Tonybagofdonuts'
p4219
sa(dp4220
g247
I69093587
sg248
S'stephvgh'
p4221
sa(dp4222
g247
I179771579
sg248
S'DREEON'
p4223
sa(dp4224
g247
I176676860
sg248
S'DumbYankee'
p4225
sa(dp4226
g247
I176148129
sg248
S'Pieces810'
p4227
sa(dp4228
g247
I176653463
sg248
S'OldFuckinCurtis'
p4229
sa(dp4230
g247
I68458507
sg248
S'jennhanopole'
p4231
sa(dp4232
g247
I26096164
sg248
S'caitlinamcguire'
p4233
sa(dp4234
g247
I30038742
sg248
S'bpeezy252'
p4235
sa(dp4236
g247
I108727529
sg248
S'EverettePrice'
p4237
sa(dp4238
g247
I89410714
sg248
S'WALMART_DUDE'
p4239
sa(dp4240
g247
I50637045
sg248
S'Britt_Holder'
p4241
sa(dp4242
g247
I105599185
sg248
S'JMM1124'
p4243
sa(dp4244
g247
I65676090
sg248
S'stugraham1981'
p4245
sa(dp4246
g247
I21140391
sg248
S'BIZYBELTZ'
p4247
sa(dp4248
g247
I25904908
sg248
S'JRsully'
p4249
sasg294
(lp4250
(dp4251
g247
I83995060
sg248
S'20Somethingrl'
p4252
sa(dp4253
g247
I23446606
sg248
S'katie_paul'
p4254
sa(dp4255
g247
I7871202
sg248
S'mitchfatel'
p4256
sa(dp4257
g247
I115485051
sg248
S'ConanOBrien'
p4258
sa(dp4259
g247
I195546843
sg248
S'AnjaliHemphill'
p4260
sa(dp4261
g247
I16116296
sg248
S'holyfieldTV'
p4262
sa(dp4263
g247
I123179595
sg248
S'JMurdErz'
p4264
sa(dp4265
g247
I188522460
sg248
S'Sammbino'
p4266
sa(dp4267
g247
I191229716
sg248
S'stonenobrien'
p4268
sa(dp4269
g247
I28265228
sg248
S'DanielleMoinet'
p4270
sa(dp4271
g247
I67707667
sg248
S'LilScrAnj'
p4272
sa(dp4273
g247
I15693493
sg248
S'funnyordie'
p4274
sa(dp4275
g247
I182591113
sg248
S'bigtimecharlieg'
p4276
sa(dp4277
g247
I26053643
sg248
S'jimmykimmel'
p4278
sa(dp4279
g247
I45947391
sg248
S'ms_shannonsmith'
p4280
sa(dp4281
g247
I18948541
sg248
S'SethMacFarlane'
p4282
sa(dp4283
g247
I76741852
sg248
S'juliussharpe'
p4284
sa(dp4285
g247
I92619019
sg248
S'tdubrose'
p4286
sa(dp4287
g247
I16303106
sg248
S'StephenAtHome'
p4288
sa(dp4289
g247
I183032152
sg248
S'Tonybagofdonuts'
p4290
sa(dp4291
g247
I20880546
sg248
S'L337Lauren'
p4292
sa(dp4293
g247
I176486533
sg248
S'Martanion'
p4294
sa(dp4295
g247
I179771579
sg248
S'DREEON'
p4296
sa(dp4297
g247
I176676860
sg248
S'DumbYankee'
p4298
sa(dp4299
g247
I50637045
sg248
S'Britt_Holder'
p4300
sa(dp4301
g247
I176148129
sg248
S'Pieces810'
p4302
sa(dp4303
g247
I176653463
sg248
S'OldFuckinCurtis'
p4304
sa(dp4305
g247
I102860009
sg248
S'Cbrentriggs'
p4306
sa(dp4307
g247
I23235056
sg248
S'KFUCKINGP'
p4308
sa(dp4309
g247
I108727529
sg248
S'EverettePrice'
p4310
sa(dp4311
g247
I26096164
sg248
S'caitlinamcguire'
p4312
sa(dp4313
g247
I89410714
sg248
S'WALMART_DUDE'
p4314
sa(dp4315
g247
I21140391
sg248
S'BIZYBELTZ'
p4316
sa(dp4317
g247
I105599185
sg248
S'JMM1124'
p4318
sa(dp4319
g247
I25521487
sg248
S'danieltosh'
p4320
sa(dp4321
g247
I65676090
sg248
S'stugraham1981'
p4322
sa(dp4323
g247
I15888142
sg248
S'oliviamunn'
p4324
sa(dp4325
g247
I25904908
sg248
S'JRsully'
p4326
sasg248
g2288
sg393
g394
(S'\x07\xda\x0b\x06\x1425\x01\t:'
p4327
tp4328
Rp4329
sa(dp4330
g2
(lp4331
(dp4332
S'favorited'
p4333
I00
sS'truncated'
p4334
I00
sS'text'
p4335
S'Outer Banks:  Partly Cloudy and 51 degrees. http://dlvr.it/87l8c #obx #hrweather'
p4336
sS'created_at'
p4337
S'Sun Nov 07 01:32:33 +0000 2010'
p4338
sS'retweeted'
p4339
I00
sS'coordinates'
p4340
NsS'in_reply_to_status_id'
p4341
NsS'place'
p4342
NsS'in_reply_to_screen_name'
p4343
NsS'retweet_count'
p4344
NsS'geo'
p4345
NsS'id'
p4346
I1084560020340736
sa(dp4347
S'favorited'
p4348
I00
sS'truncated'
p4349
I00
sS'text'
p4350
S'Southside:  Mostly Cloudy and 50 degrees in Virginia Beach. http://dlvr.it/87jRB #hrweather #vawx'
p4351
sS'created_at'
p4352
S'Sun Nov 07 01:04:19 +0000 2010'
p4353
sS'retweeted'
p4354
I00
sS'coordinates'
p4355
NsS'in_reply_to_status_id'
p4356
NsS'place'
p4357
NsS'in_reply_to_screen_name'
p4358
NsS'retweet_count'
p4359
NsS'geo'
p4360
NsS'id'
p4361
I1077454122778624
sa(dp4362
S'favorited'
p4363
I00
sS'truncated'
p4364
I00
sS'text'
p4365
S'War Zone Weather: Baghdad, Iraq - 55F, Smoke - 1:55 AM Local Time Nov. 7 http://dlvr.it/87fr7 #hrweather #military'
p4366
sS'created_at'
p4367
S'Sun Nov 07 00:19:02 +0000 2010'
p4368
sS'retweeted'
p4369
I00
sS'coordinates'
p4370
NsS'in_reply_to_status_id'
p4371
NsS'place'
p4372
NsS'in_reply_to_screen_name'
p4373
NsS'retweet_count'
p4374
NsS'geo'
p4375
NsS'id'
p4376
I1066058089758720
sa(dp4377
S'favorited'
p4378
I00
sS'truncated'
p4379
I00
sS'text'
p4380
S'Atlantic Tropical Weather Outlook http://dlvr.it/87fqf #obx #hrweather'
p4381
sS'created_at'
p4382
S'Sun Nov 07 00:19:02 +0000 2010'
p4383
sS'retweeted'
p4384
I00
sS'coordinates'
p4385
NsS'in_reply_to_status_id'
p4386
NsS'place'
p4387
NsS'in_reply_to_screen_name'
p4388
NsS'retweet_count'
p4389
NsS'geo'
p4390
NsS'id'
p4391
I1066056147800064
sa(dp4392
S'favorited'
p4393
I00
sS'truncated'
p4394
I00
sS'text'
p4395
S'NE North Carolina:  Mostly Cloudy and 50 degrees in Elizabeth City. http://dlvr.it/87f0d #hrweather #ncwx'
p4396
sS'created_at'
p4397
S'Sun Nov 07 00:04:03 +0000 2010'
p4398
sS'retweeted'
p4399
I00
sS'coordinates'
p4400
NsS'in_reply_to_status_id'
p4401
NsS'place'
p4402
NsS'in_reply_to_screen_name'
p4403
NsS'retweet_count'
p4404
NsS'geo'
p4405
NsS'id'
p4406
I1062287142027264
sa(dp4407
S'favorited'
p4408
I00
sS'truncated'
p4409
I00
sS'text'
p4410
S'Peninsula:  Partly Cloudy and 49 degrees in Hampton. http://dlvr.it/87cJ9 #hrweather #vawx'
p4411
sS'created_at'
p4412
S'Sat Nov 06 23:33:14 +0000 2010'
p4413
sS'retweeted'
p4414
I00
sS'coordinates'
p4415
NsS'in_reply_to_status_id'
p4416
NsS'place'
p4417
NsS'in_reply_to_screen_name'
p4418
NsS'retweet_count'
p4419
NsS'geo'
p4420
NsS'id'
p4421
I1054532175929344
sa(dp4422
S'favorited'
p4423
I00
sS'truncated'
p4424
I00
sS'text'
p4425
S'War Zone Weather: Kabul, Afghanistan: 41F, Mist - 3:20 AM Local Time Nov. 7 http://dlvr.it/87bVN #hrweather #military'
p4426
sS'created_at'
p4427
S'Sat Nov 06 23:18:04 +0000 2010'
p4428
sS'retweeted'
p4429
I00
sS'coordinates'
p4430
NsS'in_reply_to_status_id'
p4431
NsS'place'
p4432
NsS'in_reply_to_screen_name'
p4433
NsS'retweet_count'
p4434
NsS'geo'
p4435
NsS'id'
p4436
I1050713262137344
sa(dp4437
S'favorited'
p4438
I00
sS'truncated'
p4439
I00
sS'text'
p4440
S'Eastern Shore:  Fair and 48 degrees. http://dlvr.it/87ZlC #hrweather #esva'
p4441
sS'created_at'
p4442
S'Sat Nov 06 23:03:26 +0000 2010'
p4443
sS'retweeted'
p4444
I00
sS'coordinates'
p4445
NsS'in_reply_to_status_id'
p4446
NsS'place'
p4447
NsS'in_reply_to_screen_name'
p4448
NsS'retweet_count'
p4449
NsS'geo'
p4450
NsS'id'
p4451
I1047032319975425
sa(dp4452
S'favorited'
p4453
I00
sS'truncated'
p4454
I00
sS'text'
p4455
S'Outer Banks:  Overcast and 52 degrees. http://dlvr.it/87Y2x #obx #hrweather'
p4456
sS'created_at'
p4457
S'Sat Nov 06 22:33:40 +0000 2010'
p4458
sS'retweeted'
p4459
I00
sS'coordinates'
p4460
NsS'in_reply_to_status_id'
p4461
NsS'place'
p4462
NsS'in_reply_to_screen_name'
p4463
NsS'retweet_count'
p4464
NsS'geo'
p4465
NsS'id'
p4466
I1039539351064578
sa(dp4467
S'favorited'
p4468
I00
sS'truncated'
p4469
I00
sS'text'
p4470
S'Gloucester/Mathews: Mostly Cloudy and 54 degrees on the Middle Peninsula. http://dlvr.it/87X5F #hrweather #vawx'
p4471
sS'created_at'
p4472
S'Sat Nov 06 22:18:19 +0000 2010'
p4473
sS'retweeted'
p4474
I00
sS'coordinates'
p4475
NsS'in_reply_to_status_id'
p4476
NsS'place'
p4477
NsS'in_reply_to_screen_name'
p4478
NsS'retweet_count'
p4479
NsS'geo'
p4480
NsS'id'
p4481
I1035679320514560
sa(dp4482
S'favorited'
p4483
I00
sS'truncated'
p4484
I00
sS'text'
p4485
S'Southside:  Mostly Cloudy and 52 degrees in Virginia Beach. http://dlvr.it/87WDF #hrweather #vawx'
p4486
sS'created_at'
p4487
S'Sat Nov 06 22:04:20 +0000 2010'
p4488
sS'retweeted'
p4489
I00
sS'coordinates'
p4490
NsS'in_reply_to_status_id'
p4491
NsS'place'
p4492
NsS'in_reply_to_screen_name'
p4493
NsS'retweet_count'
p4494
NsS'geo'
p4495
NsS'id'
p4496
I1032157682204672
sa(dp4497
S'favorited'
p4498
I00
sS'truncated'
p4499
I00
sS'text'
p4500
S'Tonight in the sky: A famous variable star in the constellation Cepheus http://dlvr.it/87VQ1 #hrweather #vawx'
p4501
sS'created_at'
p4502
S'Sat Nov 06 21:49:14 +0000 2010'
p4503
sS'retweeted'
p4504
I00
sS'coordinates'
p4505
NsS'in_reply_to_status_id'
p4506
NsS'place'
p4507
NsS'in_reply_to_screen_name'
p4508
NsS'retweet_count'
p4509
NsS'geo'
p4510
NsS'id'
p4511
I1028356892000256
sa(dp4512
S'favorited'
p4513
I00
sS'truncated'
p4514
I00
sS'text'
p4515
S'OBX SURF -  FRISCO PIER : 3-4 ft. - waist to chest high and poor to fair http://dlvr.it/87TNk #obx #hrweather'
p4516
sS'created_at'
p4517
S'Sat Nov 06 21:34:03 +0000 2010'
p4518
sS'retweeted'
p4519
I00
sS'coordinates'
p4520
NsS'in_reply_to_status_id'
p4521
NsS'place'
p4522
NsS'in_reply_to_screen_name'
p4523
NsS'retweet_count'
p4524
NsS'geo'
p4525
NsS'id'
p4526
I1024539332968448
sa(dp4527
S'favorited'
p4528
I00
sS'truncated'
p4529
I00
sS'text'
p4530
S'Tropical Storm TOMAS Graphics http://dlvr.it/87SWQ #obx #hrweather'
p4531
sS'created_at'
p4532
S'Sat Nov 06 21:18:57 +0000 2010'
p4533
sS'retweeted'
p4534
I00
sS'coordinates'
p4535
NsS'in_reply_to_status_id'
p4536
NsS'place'
p4537
NsS'in_reply_to_screen_name'
p4538
NsS'retweet_count'
p4539
NsS'geo'
p4540
NsS'id'
p4541
I1020736055545857
sa(dp4542
S'favorited'
p4543
I00
sS'truncated'
p4544
I00
sS'text'
p4545
S'NE North Carolina:  Mostly Cloudy and 53 degrees in Elizabeth City. http://dlvr.it/87RPw #hrweather #ncwx'
p4546
sS'created_at'
p4547
S'Sat Nov 06 21:03:03 +0000 2010'
p4548
sS'retweeted'
p4549
I00
sS'coordinates'
p4550
NsS'in_reply_to_status_id'
p4551
NsS'place'
p4552
NsS'in_reply_to_screen_name'
p4553
NsS'retweet_count'
p4554
NsS'geo'
p4555
NsS'id'
p4556
I1016738225328128
sa(dp4557
S'favorited'
p4558
I00
sS'truncated'
p4559
I00
sS'text'
p4560
S'Shopping Weather: Mostly Cloudy and 53 degrees at Peninsula Town Center in Hampton. http://dlvr.it/87PYD #hrweather #vawx'
p4561
sS'created_at'
p4562
S'Sat Nov 06 20:33:05 +0000 2010'
p4563
sS'retweeted'
p4564
I00
sS'coordinates'
p4565
NsS'in_reply_to_status_id'
p4566
NsS'place'
p4567
NsS'in_reply_to_screen_name'
p4568
NsS'retweet_count'
p4569
NsS'geo'
p4570
NsS'id'
p4571
I1009194333372417
sa(dp4572
S'favorited'
p4573
I00
sS'truncated'
p4574
I00
sS'text'
p4575
S"Tonight's Moon: Waxing Crescent http://dlvr.it/87PY0 #hrweather"
p4576
sS'created_at'
p4577
S'Sat Nov 06 20:33:04 +0000 2010'
p4578
sS'retweeted'
p4579
I00
sS'coordinates'
p4580
NsS'in_reply_to_status_id'
p4581
NsS'place'
p4582
NsS'in_reply_to_screen_name'
p4583
NsS'retweet_count'
p4584
NsS'geo'
p4585
NsS'id'
p4586
I1009191833567234
sa(dp4587
S'favorited'
p4588
I00
sS'truncated'
p4589
I00
sS'text'
p4590
S'Peninsula:  Mostly Cloudy and 53 degrees in Hampton. http://dlvr.it/87PXv #hrweather #vawx'
p4591
sS'created_at'
p4592
S'Sat Nov 06 20:33:04 +0000 2010'
p4593
sS'retweeted'
p4594
I00
sS'coordinates'
p4595
NsS'in_reply_to_status_id'
p4596
NsS'place'
p4597
NsS'in_reply_to_screen_name'
p4598
NsS'retweet_count'
p4599
NsS'geo'
p4600
NsS'id'
p4601
I1009189228908544
sa(dp4602
S'favorited'
p4603
I00
sS'truncated'
p4604
I00
sS'text'
p4605
S'@BuschGardensVA:  Overcast and 53 degrees. http://dlvr.it/87NSq #hrweather #vawx'
p4606
sS'created_at'
p4607
S'Sat Nov 06 20:19:05 +0000 2010'
p4608
sS'retweeted'
p4609
I00
sS'coordinates'
p4610
NsS'in_reply_to_status_id'
p4611
NsS'place'
p4612
NsS'in_reply_to_screen_name'
p4613
S'BuschGardensVA'
p4614
sS'retweet_count'
p4615
NsS'geo'
p4616
NsS'id'
p4617
I1005669767454720
sa(dp4618
S'favorited'
p4619
I00
sS'truncated'
p4620
I00
sS'text'
p4621
S'Eastern Shore:  Thunderstorm in Vicinity and 52 degrees. http://dlvr.it/87MSH #hrweather #esva'
p4622
sS'created_at'
p4623
S'Sat Nov 06 20:03:02 +0000 2010'
p4624
sS'retweeted'
p4625
I00
sS'coordinates'
p4626
NsS'in_reply_to_status_id'
p4627
NsS'place'
p4628
NsS'in_reply_to_screen_name'
p4629
NsS'retweet_count'
p4630
NsS'geo'
p4631
NsS'id'
p4632
I1001633685176321
sasg244
(lp4633
(dp4634
g247
I97058327
sg248
S'SavingAndEarnin'
p4635
sa(dp4636
g247
I177378161
sg248
S'boysnamedtzu'
p4637
sa(dp4638
g247
I209924982
sg248
S'TheCanineClass'
p4639
sa(dp4640
g247
I24006118
sg248
S'MomentumInt'
p4641
sa(dp4642
g247
I810773
sg248
S'legweak'
p4643
sa(dp4644
g247
I61382208
sg248
S'bizarreBambi'
p4645
sa(dp4646
g247
I31764126
sg248
S'necie64'
p4647
sa(dp4648
g247
I196979447
sg248
S'123_4_joy'
p4649
sa(dp4650
g247
I48737372
sg248
S'YuriPRMilligan'
p4651
sa(dp4652
g247
I39658263
sg248
S'bornonmonday'
p4653
sa(dp4654
g247
I43125491
sg248
S'GeneratorsDirec'
p4655
sa(dp4656
g247
I182683401
sg248
S'TheAngryOracle'
p4657
sa(dp4658
g247
I95702664
sg248
S'EastCoastComm'
p4659
sa(dp4660
g247
I198877886
sg248
S'All_Seasons_HC'
p4661
sa(dp4662
g247
I183781321
sg248
S'Makiamusic'
p4663
sa(dp4664
g247
I103287665
sg248
S'genebowker'
p4665
sa(dp4666
g247
I156268019
sg248
S'KingEricThe1st'
p4667
sa(dp4668
g247
I209992979
sg248
S'washedupOBX'
p4669
sa(dp4670
g247
I51446765
sg248
S'Sokos6'
p4671
sa(dp4672
g247
I75539104
sg248
S'johndeeregirslp'
p4673
sa(dp4674
g247
I86782697
sg248
S'janicehassell'
p4675
sa(dp4676
g247
I191654943
sg248
S'mebaddude'
p4677
sa(dp4678
g247
I188202145
sg248
S'My7CitiesVA'
p4679
sa(dp4680
g247
I18137650
sg248
S'AvonOBX'
p4681
sa(dp4682
g247
I202845710
sg248
S'LangleySpeedway'
p4683
sa(dp4684
g247
I208725555
sg248
S'LimeLightVA'
p4685
sa(dp4686
g247
I15747938
sg248
S'michelreverte'
p4687
sa(dp4688
g247
I111836882
sg248
S'DeesiiSam'
p4689
sa(dp4690
g247
I146237437
sg248
S'Jonny7469'
p4691
sa(dp4692
g247
I208775501
sg248
S'Koher_Center'
p4693
sa(dp4694
g247
I71614786
sg248
S'MarinaShores'
p4695
sa(dp4696
g247
I203258473
sg248
S'Groupon_Kate'
p4697
sa(dp4698
g247
I204886467
sg248
S'RedStarTavernNN'
p4699
sa(dp4700
g247
I66359805
sg248
S'happybark'
p4701
sa(dp4702
g247
I206553207
sg248
S'SanityBlog'
p4703
sa(dp4704
g247
I22862478
sg248
S'stephmciver'
p4705
sa(dp4706
g247
I54036018
sg248
S'MsAliciaLove6'
p4707
sa(dp4708
g247
I16147568
sg248
S'TKDMann'
p4709
sa(dp4710
g247
I16514004
sg248
S'portsvaevents'
p4711
sa(dp4712
g247
I133294368
sg248
S'SOlympicsVA'
p4713
sa(dp4714
g247
I200071835
sg248
S'arneltanyag'
p4715
sa(dp4716
g247
I185255131
sg248
S'BRParkwayDaily'
p4717
sa(dp4718
g247
I89313296
sg248
S'catmatmc'
p4719
sa(dp4720
g247
I189262223
sg248
S'nursecherylg'
p4721
sa(dp4722
g247
I164362231
sg248
S'bassettva'
p4723
sa(dp4724
g247
I22502652
sg248
S'mrsjmphillips'
p4725
sa(dp4726
g247
I205126191
sg248
S'Island_Quest'
p4727
sa(dp4728
g247
I86158104
sg248
S'baranhill'
p4729
sa(dp4730
g247
I18574496
sg248
S'laristech'
p4731
sa(dp4732
g247
I25021285
sg248
S'VaChicklet'
p4733
sa(dp4734
g247
I200874345
sg248
S'AvonSouthWales'
p4735
sa(dp4736
g247
I84115082
sg248
S'Metro_Proponent'
p4737
sa(dp4738
g247
I48389713
sg248
S'RisingRedStorm'
p4739
sa(dp4740
g247
I53263356
sg248
S'JudyHamann'
p4741
sa(dp4742
g247
I110526650
sg248
S'barduke414'
p4743
sa(dp4744
g247
I28570244
sg248
S'JohnWojtasiak'
p4745
sa(dp4746
g247
I176839925
sg248
S'VirginiaBeachTW'
p4747
sa(dp4748
g247
I19071682
sg248
S'breakingweather'
p4749
sa(dp4750
g247
I92179243
sg248
S'XerxesNabong'
p4751
sa(dp4752
g247
I193335916
sg248
S'MRSB_LawFirm'
p4753
sa(dp4754
g247
I89358730
sg248
S'lagunaisms'
p4755
sa(dp4756
g247
I178914073
sg248
S'ChanginLanesEnt'
p4757
sa(dp4758
g247
I201568288
sg248
S'rosebelieve'
p4759
sa(dp4760
g247
I185287559
sg248
S'ssanders1963'
p4761
sa(dp4762
g247
I142026352
sg248
S'rashadprmtm'
p4763
sa(dp4764
g247
I188393375
sg248
S'VaBchCalClosets'
p4765
sa(dp4766
g247
I44999155
sg248
S'MarlyisMe'
p4767
sa(dp4768
g247
I180705170
sg248
S'acservicewale'
p4769
sa(dp4770
g247
I148453040
sg248
S'ClearviewVaBch'
p4771
sa(dp4772
g247
I127841594
sg248
S'TheMilitaryLIfe'
p4773
sa(dp4774
g247
I157036550
sg248
S'NewHomeAdvice'
p4775
sa(dp4776
g247
I15679323
sg248
S'atruckerwife'
p4777
sa(dp4778
g247
I120647842
sg248
S'Juanchipotle'
p4779
sa(dp4780
g247
I197646754
sg248
S'martin_gardner'
p4781
sa(dp4782
g247
I186100299
sg248
S'NorthernPikeFly'
p4783
sa(dp4784
g247
I142110904
sg248
S'returnofspike'
p4785
sa(dp4786
g247
I199181510
sg248
S'pickyperk'
p4787
sa(dp4788
g247
I173682371
sg248
S'ibizalover752'
p4789
sa(dp4790
g247
I168698404
sg248
S'rtbconstruction'
p4791
sa(dp4792
g247
I115438636
sg248
S'onephotojourney'
p4793
sa(dp4794
g247
I88054362
sg248
S'heavensbakeshop'
p4795
sa(dp4796
g247
I28424899
sg248
S'JohnRainey'
p4797
sa(dp4798
g247
I132747433
sg248
S'rosempersinger'
p4799
sa(dp4800
g247
I189744887
sg248
S'mysalihs'
p4801
sa(dp4802
g247
I37105216
sg248
S'YouTubeGOLF'
p4803
sa(dp4804
g247
I18198727
sg248
S'dianspgh'
p4805
sa(dp4806
g247
I15903837
sg248
S'mattpooch'
p4807
sa(dp4808
g247
I189232480
sg248
S'grant_gilmore'
p4809
sa(dp4810
g247
I184930235
sg248
S'hotdoggersobx'
p4811
sa(dp4812
g247
I194463936
sg248
S'Dztined'
p4813
sa(dp4814
g247
I133351765
sg248
S'badcredit2010'
p4815
sa(dp4816
g247
I179069518
sg248
S'kissmeladyhank'
p4817
sa(dp4818
g247
I184858487
sg248
S'BeachGirl8301'
p4819
sa(dp4820
g247
I15976003
sg248
S'cfsIIII'
p4821
sa(dp4822
g247
I195864934
sg248
S'BallroomVA_net'
p4823
sa(dp4824
g247
I187187876
sg248
S'LokangoNorfolk'
p4825
sa(dp4826
g247
I16547718
sg248
S'purpeach'
p4827
sa(dp4828
g247
I107102912
sg248
S'REGENRECOVERY'
p4829
sa(dp4830
g247
I196127058
sg248
S'DRIBITS'
p4831
sa(dp4832
g247
I190244161
sg248
S'joe73001'
p4833
sasg294
(lp4834
(dp4835
g247
I24006118
sg248
S'MomentumInt'
p4836
sa(dp4837
g247
I209924982
sg248
S'TheCanineClass'
p4838
sa(dp4839
g247
I810773
sg248
S'legweak'
p4840
sa(dp4841
g247
I31764126
sg248
S'necie64'
p4842
sa(dp4843
g247
I182683401
sg248
S'TheAngryOracle'
p4844
sa(dp4845
g247
I209992979
sg248
S'washedupOBX'
p4846
sa(dp4847
g247
I183781321
sg248
S'Makiamusic'
p4848
sa(dp4849
g247
I198877886
sg248
S'All_Seasons_HC'
p4850
sa(dp4851
g247
I95702664
sg248
S'EastCoastComm'
p4852
sa(dp4853
g247
I51446765
sg248
S'Sokos6'
p4854
sa(dp4855
g247
I48737372
sg248
S'YuriPRMilligan'
p4856
sa(dp4857
g247
I195984220
sg248
S'sjmaven1993'
p4858
sa(dp4859
g247
I75539104
sg248
S'johndeeregirslp'
p4860
sa(dp4861
g247
I59385531
sg248
S'marcuslking'
p4862
sa(dp4863
g247
I188202145
sg248
S'My7CitiesVA'
p4864
sa(dp4865
g247
I208008370
sg248
S'sussexsingles'
p4866
sa(dp4867
g247
I156268019
sg248
S'KingEricThe1st'
p4868
sa(dp4869
g247
I202845710
sg248
S'LangleySpeedway'
p4870
sa(dp4871
g247
I18137650
sg248
S'AvonOBX'
p4872
sa(dp4873
g247
I208725555
sg248
S'LimeLightVA'
p4874
sa(dp4875
g247
I208787522
sg248
S'getpaid9'
p4876
sa(dp4877
g247
I71614786
sg248
S'MarinaShores'
p4878
sa(dp4879
g247
I204886467
sg248
S'RedStarTavernNN'
p4880
sa(dp4881
g247
I18418121
sg248
S'bobfox61'
p4882
sa(dp4883
g247
I15569575
sg248
S'cadsit'
p4884
sa(dp4885
g247
I61382208
sg248
S'bizarreBambi'
p4886
sa(dp4887
g247
I16929301
sg248
S'VDSS'
p4888
sa(dp4889
g247
I20917715
sg248
S'NavyLady6894'
p4890
sa(dp4891
g247
I11818502
sg248
S'fgaskins'
p4892
sa(dp4893
g247
I205922124
sg248
S'OTHSEAFOOD'
p4894
sa(dp4895
g247
I206365633
sg248
S'VBSO'
p4896
sa(dp4897
g247
I89709118
sg248
S'JimPits'
p4898
sa(dp4899
g247
I40593388
sg248
S'itzjujuyo'
p4900
sa(dp4901
g247
I175104296
sg248
S'ameliadonnell'
p4902
sa(dp4903
g247
I35867619
sg248
S'Mobile757SEO'
p4904
sa(dp4905
g247
I179771579
sg248
S'DREEON'
p4906
sa(dp4907
g247
I206553207
sg248
S'SanityBlog'
p4908
sa(dp4909
g247
I133294368
sg248
S'SOlympicsVA'
p4910
sa(dp4911
g247
I16514004
sg248
S'portsvaevents'
p4912
sa(dp4913
g247
I22657812
sg248
S'JiMorris3'
p4914
sa(dp4915
g247
I200071835
sg248
S'arneltanyag'
p4916
sa(dp4917
g247
I189262223
sg248
S'nursecherylg'
p4918
sa(dp4919
g247
I89313296
sg248
S'catmatmc'
p4920
sa(dp4921
g247
I22502652
sg248
S'mrsjmphillips'
p4922
sa(dp4923
g247
I164362231
sg248
S'bassettva'
p4924
sa(dp4925
g247
I205126191
sg248
S'Island_Quest'
p4926
sa(dp4927
g247
I18574496
sg248
S'laristech'
p4928
sa(dp4929
g247
I110526650
sg248
S'barduke414'
p4930
sa(dp4931
g247
I28570244
sg248
S'JohnWojtasiak'
p4932
sa(dp4933
g247
I201401409
sg248
S'PerryAuto'
p4934
sa(dp4935
g247
I170042055
sg248
S'VaCowboy2010'
p4936
sa(dp4937
g247
I92179243
sg248
S'XerxesNabong'
p4938
sa(dp4939
g247
I198677555
sg248
S'iluvmylightskin'
p4940
sa(dp4941
g247
I132190919
sg248
S'Evil_Ken_Doll'
p4942
sa(dp4943
g247
I199871754
sg248
S'Missjdar1985'
p4944
sa(dp4945
g247
I22893478
sg248
S'nirro04'
p4946
sa(dp4947
g247
I128754641
sg248
S'damnhesharp'
p4948
sa(dp4949
g247
I23356391
sg248
S'bashx001'
p4950
sa(dp4951
g247
I26115819
sg248
S'pobo7'
p4952
sa(dp4953
g247
I28933687
sg248
S'kallmeKJ'
p4954
sa(dp4955
g247
I185287559
sg248
S'ssanders1963'
p4956
sa(dp4957
g247
I39152708
sg248
S'JoshuaAbrams'
p4958
sa(dp4959
g247
I32681169
sg248
S'karcnck'
p4960
sa(dp4961
g247
I189925948
sg248
S'adidulce'
p4962
sa(dp4963
g247
I68471286
sg248
S'kingsdot757'
p4964
sa(dp4965
g247
I188393375
sg248
S'VaBchCalClosets'
p4966
sa(dp4967
g247
I44999155
sg248
S'MarlyisMe'
p4968
sa(dp4969
g247
I189211612
sg248
S'briannmelissa'
p4970
sa(dp4971
g247
I198493575
sg248
S'bigdog23607'
p4972
sa(dp4973
g247
I178914073
sg248
S'ChanginLanesEnt'
p4974
sa(dp4975
g247
I18683685
sg248
S'hayesjam420'
p4976
sa(dp4977
g247
I145736284
sg248
S'219bistro'
p4978
sa(dp4979
g247
I193335916
sg248
S'MRSB_LawFirm'
p4980
sa(dp4981
g247
I182405311
sg248
S'FC1930'
p4982
sa(dp4983
g247
I148453040
sg248
S'ClearviewVaBch'
p4984
sa(dp4985
g247
I138867468
sg248
S'CrankeeDave'
p4986
sa(dp4987
g247
I120647842
sg248
S'Juanchipotle'
p4988
sa(dp4989
g247
I142110904
sg248
S'returnofspike'
p4990
sa(dp4991
g247
I168698404
sg248
S'rtbconstruction'
p4992
sa(dp4993
g247
I115438636
sg248
S'onephotojourney'
p4994
sa(dp4995
g247
I195546843
sg248
S'AnjaliHemphill'
p4996
sa(dp4997
g247
I71281860
sg248
S'RepRandyForbes'
p4998
sa(dp4999
g247
I88054362
sg248
S'heavensbakeshop'
p5000
sa(dp5001
g247
I192211728
sg248
S'petertebault'
p5002
sa(dp5003
g247
I66778350
sg248
S'jldenham'
p5004
sa(dp5005
g247
I195205097
sg248
S'The_Torgeir'
p5006
sa(dp5007
g247
I149971675
sg248
S'soholashes'
p5008
sa(dp5009
g247
I187187876
sg248
S'LokangoNorfolk'
p5010
sa(dp5011
g247
I54069731
sg248
S'unclerich29'
p5012
sa(dp5013
g247
I165826745
sg248
S'VABEACHworks'
p5014
sa(dp5015
g247
I195851031
sg248
S'bobzigga'
p5016
sa(dp5017
g247
I30348251
sg248
S'dsmlbreeding'
p5018
sa(dp5019
g247
I197646754
sg248
S'martin_gardner'
p5020
sa(dp5021
g247
I28424899
sg248
S'JohnRainey'
p5022
sa(dp5023
g247
I189744887
sg248
S'mysalihs'
p5024
sa(dp5025
g247
I15903837
sg248
S'mattpooch'
p5026
sa(dp5027
g247
I184930235
sg248
S'hotdoggersobx'
p5028
sa(dp5029
g247
I195864934
sg248
S'BallroomVA_net'
p5030
sa(dp5031
g247
I15976003
sg248
S'cfsIIII'
p5032
sa(dp5033
g247
I194009578
sg248
S'ModernWoodmenHR'
p5034
sasg248
g3694
sg393
g394
(S'\x07\xda\x0b\x06\x142;\x0e\xf2\xd6'
p5035
tp5036
Rp5037
sa(dp5038
g2
(lp5039
(dp5040
S'favorited'
p5041
I00
sS'truncated'
p5042
I00
sS'text'
p5043
S"@50cent bet you won't ride down my block in that shit"
p5044
sS'created_at'
p5045
S'Sat Nov 06 22:46:25 +0000 2010'
p5046
sS'retweeted'
p5047
I00
sS'coordinates'
p5048
NsS'in_reply_to_status_id'
p5049
NsS'place'
p5050
NsS'in_reply_to_screen_name'
p5051
S'50cent'
p5052
sS'retweet_count'
p5053
NsS'geo'
p5054
NsS'id'
p5055
I1042751076442113
sa(dp5056
S'favorited'
p5057
I00
sS'truncated'
p5058
I00
sS'text'
p5059
S"Tonight I'm gonna put our relationship to the test.Promises will be made lives will chAnge and feelings may be hurt.not mine though I'm busy"
p5060
sS'created_at'
p5061
S'Sat Nov 06 22:44:39 +0000 2010'
p5062
sS'retweeted'
p5063
I00
sS'coordinates'
p5064
NsS'in_reply_to_status_id'
p5065
NsS'place'
p5066
NsS'in_reply_to_screen_name'
p5067
NsS'retweet_count'
p5068
NsS'geo'
p5069
NsS'id'
p5070
I1042306283085825
sa(dp5071
S'favorited'
p5072
I00
sS'truncated'
p5073
I00
sS'text'
p5074
VI know this dude Mimic\u2122 that's good enough for me
p5075
sS'created_at'
p5076
S'Sat Nov 06 21:47:06 +0000 2010'
p5077
sS'retweeted'
p5078
I00
sS'coordinates'
p5079
NsS'in_reply_to_status_id'
p5080
NsS'place'
p5081
NsS'in_reply_to_screen_name'
p5082
NsS'retweet_count'
p5083
NsS'geo'
p5084
NsS'id'
p5085
I1027823582052352
sa(dp5086
S'favorited'
p5087
I00
sS'truncated'
p5088
I00
sS'text'
p5089
S'Skinny jeans wernt as popular back when G.W. bush was in office. Coincidence or gay democratic conspiracy'
p5090
sS'created_at'
p5091
S'Sat Nov 06 21:40:26 +0000 2010'
p5092
sS'retweeted'
p5093
I00
sS'coordinates'
p5094
NsS'in_reply_to_status_id'
p5095
NsS'place'
p5096
NsS'in_reply_to_screen_name'
p5097
NsS'retweet_count'
p5098
NsS'geo'
p5099
NsS'id'
p5100
I1026145168396289
sa(dp5101
S'favorited'
p5102
I00
sS'truncated'
p5103
I00
sS'text'
p5104
S'The same people that put estrogen in your food want you to think being racist is bad, that sexual harassment is wrong & skinny jeans R legit'
p5105
sS'created_at'
p5106
S'Sat Nov 06 21:37:37 +0000 2010'
p5107
sS'retweeted'
p5108
I00
sS'coordinates'
p5109
NsS'in_reply_to_status_id'
p5110
NsS'place'
p5111
NsS'in_reply_to_screen_name'
p5112
NsS'retweet_count'
p5113
NsS'geo'
p5114
NsS'id'
p5115
I1025435722846208
sa(dp5116
S'favorited'
p5117
I00
sS'truncated'
p5118
I00
sS'text'
p5119
S'@hoytsterr ahhh so it is. I believe the word I was looking for is NigGger thanks hope this clears any confusion'
p5120
sS'created_at'
p5121
S'Sat Nov 06 21:28:20 +0000 2010'
p5122
sS'retweeted'
p5123
I00
sS'coordinates'
p5124
NsS'in_reply_to_status_id'
p5125
NsS'place'
p5126
NsS'in_reply_to_screen_name'
p5127
S'hoytsterr'
p5128
sS'retweet_count'
p5129
NsS'geo'
p5130
NsS'id'
p5131
I1023100825112576
sa(dp5132
S'favorited'
p5133
I00
sS'truncated'
p5134
I00
sS'text'
p5135
S"@DumbYankee my mom never fed us wings because that's niger food"
p5136
sS'created_at'
p5137
S'Sat Nov 06 21:09:26 +0000 2010'
p5138
sS'retweeted'
p5139
I00
sS'coordinates'
p5140
NsS'in_reply_to_status_id'
p5141
I1017086549696515
sS'place'
p5142
NsS'in_reply_to_screen_name'
p5143
S'DumbYankee'
p5144
sS'retweet_count'
p5145
NsS'geo'
p5146
NsS'id'
p5147
I1018343096061952
sa(dp5148
S'favorited'
p5149
I00
sS'truncated'
p5150
I00
sS'text'
p5151
S"I don't know if I can d  preppy tonight but I can do casual gangst don't want to go to preppy and wind up looking like something I'm not"
p5152
sS'created_at'
p5153
S'Sat Nov 06 21:07:41 +0000 2010'
p5154
sS'retweeted'
p5155
I00
sS'coordinates'
p5156
NsS'in_reply_to_status_id'
p5157
NsS'place'
p5158
NsS'in_reply_to_screen_name'
p5159
NsS'retweet_count'
p5160
NsS'geo'
p5161
NsS'id'
p5162
I1017901343576064
sa(dp5163
S'favorited'
p5164
I00
sS'truncated'
p5165
I00
sS'text'
p5166
S'Buy something get something 40% off at sole brother tell em dreeon sent you'
p5167
sS'created_at'
p5168
S'Sat Nov 06 20:32:32 +0000 2010'
p5169
sS'retweeted'
p5170
I00
sS'coordinates'
p5171
NsS'in_reply_to_status_id'
p5172
NsS'place'
p5173
NsS'in_reply_to_screen_name'
p5174
NsS'retweet_count'
p5175
NsS'geo'
p5176
NsS'id'
p5177
I1009055573221377
sa(dp5178
S'favorited'
p5179
I00
sS'truncated'
p5180
I00
sS'text'
p5181
S'Ohhhh meh meh meh meh meh meh meh meh my cherona'
p5182
sS'created_at'
p5183
S'Sat Nov 06 20:25:49 +0000 2010'
p5184
sS'retweeted'
p5185
I00
sS'coordinates'
p5186
NsS'in_reply_to_status_id'
p5187
NsS'place'
p5188
NsS'in_reply_to_screen_name'
p5189
NsS'retweet_count'
p5190
NsS'geo'
p5191
NsS'id'
p5192
I1007365805580288
sa(dp5193
S'favorited'
p5194
I00
sS'truncated'
p5195
I00
sS'text'
p5196
S'@OldFuckinCurtis I will get your softtail running and see if I can fix the leak for one sausage biscut with ketsup and one boberry biscut'
p5197
sS'created_at'
p5198
S'Sat Nov 06 20:03:13 +0000 2010'
p5199
sS'retweeted'
p5200
I00
sS'coordinates'
p5201
NsS'in_reply_to_status_id'
p5202
NsS'place'
p5203
NsS'in_reply_to_screen_name'
p5204
S'OldFuckinCurtis'
p5205
sS'retweet_count'
p5206
NsS'geo'
p5207
NsS'id'
p5208
I1001678815895552
sa(dp5209
S'favorited'
p5210
I00
sS'truncated'
p5211
I00
sS'text'
p5212
S'In case you were wondering what happened to all that stuff that one time, it was converted to this http://yfrog.com/gvqqxyj'
p5213
sS'created_at'
p5214
S'Sat Nov 06 19:35:26 +0000 2010'
p5215
sS'retweeted'
p5216
I00
sS'coordinates'
p5217
NsS'in_reply_to_status_id'
p5218
NsS'place'
p5219
NsS'in_reply_to_screen_name'
p5220
NsS'retweet_count'
p5221
NsS'geo'
p5222
NsS'id'
p5223
I994685183070208
sa(dp5224
S'favorited'
p5225
I00
sS'truncated'
p5226
I00
sS'text'
p5227
S'Duck when I bust. That is all for now'
p5228
sS'created_at'
p5229
S'Sat Nov 06 19:26:52 +0000 2010'
p5230
sS'retweeted'
p5231
I00
sS'coordinates'
p5232
NsS'in_reply_to_status_id'
p5233
NsS'place'
p5234
NsS'in_reply_to_screen_name'
p5235
NsS'retweet_count'
p5236
NsS'geo'
p5237
NsS'id'
p5238
I992529969319936
sa(dp5239
S'favorited'
p5240
I00
sS'truncated'
p5241
I00
sS'text'
p5242
S"Good I see you've already met so we can skip the formal intriduction and just let michael take over from here"
p5243
sS'created_at'
p5244
S'Sat Nov 06 03:30:38 +0000 2010'
p5245
sS'retweeted'
p5246
I00
sS'coordinates'
p5247
NsS'in_reply_to_status_id'
p5248
NsS'place'
p5249
NsS'in_reply_to_screen_name'
p5250
NsS'retweet_count'
p5251
NsS'geo'
p5252
NsS'id'
p5253
I751888102326272
sa(dp5254
S'favorited'
p5255
I00
sS'truncated'
p5256
I00
sS'text'
p5257
S"@hoytsterr I'm trying to park a battleship in a coffee cup"
p5258
sS'created_at'
p5259
S'Sat Nov 06 00:57:54 +0000 2010'
p5260
sS'retweeted'
p5261
I00
sS'coordinates'
p5262
NsS'in_reply_to_status_id'
p5263
I711491284107264
sS'place'
p5264
NsS'in_reply_to_screen_name'
p5265
S'hoytsterr'
p5266
sS'retweet_count'
p5267
NsS'geo'
p5268
NsS'id'
p5269
I713450460282880
sa(dp5270
S'favorited'
p5271
I00
sS'truncated'
p5272
I00
sS'text'
p5273
S'Is this bahari? http://yfrog.com/2sz0oyj'
p5274
sS'created_at'
p5275
S'Fri Nov 05 22:29:09 +0000 2010'
p5276
sS'retweeted'
p5277
I00
sS'coordinates'
p5278
NsS'in_reply_to_status_id'
p5279
NsS'place'
p5280
NsS'in_reply_to_screen_name'
p5281
NsS'retweet_count'
p5282
NsS'geo'
p5283
NsS'id'
p5284
I676017702178819
sa(dp5285
S'favorited'
p5286
I00
sS'truncated'
p5287
I00
sS'text'
p5288
S"I'm not a racist I'm a republican but I would never vote. Only if I had to take my ballot to a hotelroom hand it to tina fey and sara palin."
p5289
sS'created_at'
p5290
S'Thu Nov 04 23:11:49 +0000 2010'
p5291
sS'retweeted'
p5292
I00
sS'coordinates'
p5293
NsS'in_reply_to_status_id'
p5294
NsS'place'
p5295
NsS'in_reply_to_screen_name'
p5296
NsS'retweet_count'
p5297
NsS'geo'
p5298
NsS'id'
p5299
I324365832949760
sa(dp5300
S'favorited'
p5301
I00
sS'truncated'
p5302
I00
sS'text'
p5303
S'@hoytsterr hahahaha yep'
p5304
sS'created_at'
p5305
S'Thu Nov 04 21:16:22 +0000 2010'
p5306
sS'retweeted'
p5307
I00
sS'coordinates'
p5308
NsS'in_reply_to_status_id'
p5309
NsS'place'
p5310
NsS'in_reply_to_screen_name'
p5311
S'hoytsterr'
p5312
sS'retweet_count'
p5313
NsS'geo'
p5314
NsS'id'
p5315
I295312941912064
sasg244
(lp5316
(dp5317
g247
I187639627
sg248
S'sonsforfreedom'
p5318
sa(dp5319
g247
I149057611
sg248
S'Pokerstudygroup'
p5320
sa(dp5321
g247
I74278144
sg248
S'quotestanhope'
p5322
sa(dp5323
g247
I204647589
sg248
S'MARCIEHURLEY956'
p5324
sa(dp5325
g247
I154228459
sg248
S'Nikebuzz'
p5326
sa(dp5327
g247
I106844785
sg248
S'jsmith8443'
p5328
sa(dp5329
g247
I209769575
sg248
S'MrConvoTweeter'
p5330
sa(dp5331
g247
I208810996
sg248
S'THISizBAHERI'
p5332
sa(dp5333
g247
I57914321
sg248
S'PatrickRockey'
p5334
sa(dp5335
g247
I197267586
sg248
S'oprahobama'
p5336
sa(dp5337
g247
I16061163
sg248
S'RobSprance'
p5338
sa(dp5339
g247
I58809331
sg248
S'ChuckNorriz'
p5340
sa(dp5341
g247
I188522460
sg248
S'Sammbino'
p5342
sa(dp5343
g247
I204993274
sg248
S'soberrynotty'
p5344
sa(dp5345
g247
I178517282
sg248
S'Autodownload'
p5346
sa(dp5347
g247
I59280129
sg248
S'hoytsterr'
p5348
sa(dp5349
g247
I195546843
sg248
S'AnjaliHemphill'
p5350
sa(dp5351
g247
I157097378
sg248
S'uhNicole'
p5352
sa(dp5353
g247
I15697067
sg248
S'UncleFishbits'
p5354
sa(dp5355
g247
I173056472
sg248
S'TWqAFL473'
p5356
sa(dp5357
g247
I97706228
sg248
S'JorJordollars'
p5358
sa(dp5359
g247
I67707667
sg248
S'LilScrAnj'
p5360
sa(dp5361
g247
I89410714
sg248
S'WALMART_DUDE'
p5362
sa(dp5363
g247
I186255437
sg248
S'mattyacrite'
p5364
sa(dp5365
g247
I46908205
sg248
S'Gain__Followers'
p5366
sa(dp5367
g247
I184515672
sg248
S'theMAYORoMYRTLE'
p5368
sa(dp5369
g247
I178539115
sg248
S'MJBANDIT273'
p5370
sa(dp5371
g247
I171721795
sg248
S'badcelebrities'
p5372
sa(dp5373
g247
I183032152
sg248
S'Tonybagofdonuts'
p5374
sa(dp5375
g247
I50637045
sg248
S'Britt_Holder'
p5376
sa(dp5377
g247
I176676860
sg248
S'DumbYankee'
p5378
sa(dp5379
g247
I116313669
sg248
S'LissaMane'
p5380
sa(dp5381
g247
I159230403
sg248
S'TheRealPITTS'
p5382
sa(dp5383
g247
I25904908
sg248
S'JRsully'
p5384
sa(dp5385
g247
I176148129
sg248
S'Pieces810'
p5386
sa(dp5387
g247
I176653463
sg248
S'OldFuckinCurtis'
p5388
sa(dp5389
g247
I108727529
sg248
S'EverettePrice'
p5390
sasg294
(lp5391
(dp5392
g247
I187639627
sg248
S'sonsforfreedom'
p5393
sa(dp5394
g247
I204647589
sg248
S'MARCIEHURLEY956'
p5395
sa(dp5396
g247
I17278985
sg248
S'Kristen_IRL'
p5397
sa(dp5398
g247
I74278144
sg248
S'quotestanhope'
p5399
sa(dp5400
g247
I75706915
sg248
S'Daniel_M_Phil'
p5401
sa(dp5402
g247
I154228459
sg248
S'Nikebuzz'
p5403
sa(dp5404
g247
I19382500
sg248
S'SoleCollector'
p5405
sa(dp5406
g247
I30406287
sg248
S'erickoston'
p5407
sa(dp5408
g247
I42519612
sg248
S'FloydMayweather'
p5409
sa(dp5410
g247
I9562562
sg248
S'elbeard'
p5411
sa(dp5412
g247
I15485441
sg248
S'jimmyfallon'
p5413
sa(dp5414
g247
I6480732
sg248
S'robhuebel'
p5415
sa(dp5416
g247
I17719233
sg248
S'GaryJBusey'
p5417
sa(dp5418
g247
I14867598
sg248
S'DougStanhope'
p5419
sa(dp5420
g247
I106844785
sg248
S'jsmith8443'
p5421
sa(dp5422
g247
I29611918
sg248
S'KendraWilkinson'
p5423
sa(dp5424
g247
I180902559
sg248
S'gretaglaubke'
p5425
sa(dp5426
g247
I160817572
sg248
S'Lord_Voldemort7'
p5427
sa(dp5428
g247
I72818155
sg248
S'raylewis52com'
p5429
sa(dp5430
g247
I208810996
sg248
S'THISizBAHERI'
p5431
sa(dp5432
g247
I197267586
sg248
S'oprahobama'
p5433
sa(dp5434
g247
I17053535
sg248
S'drugscom'
p5435
sa(dp5436
g247
I16061163
sg248
S'RobSprance'
p5437
sa(dp5438
g247
I178517282
sg248
S'Autodownload'
p5439
sa(dp5440
g247
I204993274
sg248
S'soberrynotty'
p5441
sa(dp5442
g247
I28638191
sg248
S'Sn00ki'
p5443
sa(dp5444
g247
I28474662
sg248
S'cocosworld'
p5445
sa(dp5446
g247
I34888855
sg248
S'mr_t_facts'
p5447
sa(dp5448
g247
I67229661
sg248
S'GroovyChin'
p5449
sa(dp5450
g247
I156132825
sg248
S'MikeTyson'
p5451
sa(dp5452
g247
I19908848
sg248
S'MancowMuller'
p5453
sa(dp5454
g247
I129202902
sg248
S'naturesmed420'
p5455
sa(dp5456
g247
I112652948
sg248
S'daveihl'
p5457
sa(dp5458
g247
I184274375
sg248
S'InventionAdvice'
p5459
sa(dp5460
g247
I77266514
sg248
S'Papa_John_'
p5461
sa(dp5462
g247
I20354845
sg248
S'kirstenmoore'
p5463
sa(dp5464
g247
I108685765
sg248
S'unhappyhipsters'
p5465
sa(dp5466
g247
I59280129
sg248
S'hoytsterr'
p5467
sa(dp5468
g247
I35335859
sg248
S'MRTHIEF'
p5469
sa(dp5470
g247
I141183055
sg248
S'TheLifeThief'
p5471
sa(dp5472
g247
I23139194
sg248
S'DNCL'
p5473
sa(dp5474
g247
I19486963
sg248
S'NipseyHussle'
p5475
sa(dp5476
g247
I34888586
sg248
S'chuck_facts'
p5477
sa(dp5478
g247
I32462148
sg248
S'jasonbritton'
p5479
sa(dp5480
g247
I195546843
sg248
S'AnjaliHemphill'
p5481
sa(dp5482
g247
I157097378
sg248
S'uhNicole'
p5483
sa(dp5484
g247
I15697067
sg248
S'UncleFishbits'
p5485
sa(dp5486
g247
I188522460
sg248
S'Sammbino'
p5487
sa(dp5488
g247
I46954727
sg248
S'FATJEW'
p5489
sa(dp5490
g247
I31206614
sg248
S'Jesus_M_Christ'
p5491
sa(dp5492
g247
I34387766
sg248
S'PartyNBullshit'
p5493
sa(dp5494
g247
I97369148
sg248
S'dollycompton'
p5495
sa(dp5496
g247
I52551600
sg248
S'JimCarrey'
p5497
sa(dp5498
g247
I18222378
sg248
S'50cent'
p5499
sa(dp5500
g247
I21713519
sg248
S'M_Ahmadinejad'
p5501
sa(dp5502
g247
I187371887
sg248
S'English50cent'
p5503
sa(dp5504
g247
I186255437
sg248
S'mattyacrite'
p5505
sa(dp5506
g247
I30038742
sg248
S'bpeezy252'
p5507
sa(dp5508
g247
I136800225
sg248
S'RacistTom'
p5509
sa(dp5510
g247
I184515672
sg248
S'theMAYORoMYRTLE'
p5511
sa(dp5512
g247
I178539115
sg248
S'MJBANDIT273'
p5513
sa(dp5514
g247
I183032152
sg248
S'Tonybagofdonuts'
p5515
sa(dp5516
g247
I29323321
sg248
S'Ass_Mint'
p5517
sa(dp5518
g247
I15828965
sg248
S'BadAssFrank'
p5519
sa(dp5520
g247
I6480682
sg248
S'azizansari'
p5521
sa(dp5522
g247
I5402612
sg248
S'BBCBreaking'
p5523
sa(dp5524
g247
I428333
sg248
S'cnnbrk'
p5525
sa(dp5526
g247
I23122597
sg248
S'ericwareheim'
p5527
sa(dp5528
g247
I21035409
sg248
S'michaelianblack'
p5529
sa(dp5530
g247
I26096164
sg248
S'caitlinamcguire'
p5531
sa(dp5532
g247
I97706228
sg248
S'JorJordollars'
p5533
sa(dp5534
g247
I102860009
sg248
S'Cbrentriggs'
p5535
sa(dp5536
g247
I6539592
sg248
S'JimGaffigan'
p5537
sa(dp5538
g247
I24964967
sg248
S'Dirt_Nasty'
p5539
sa(dp5540
g247
I22657153
sg248
S'DavidSpade'
p5541
sa(dp5542
g247
I176676860
sg248
S'DumbYankee'
p5543
sa(dp5544
g247
I54677988
sg248
S'coldwindkat'
p5545
sa(dp5546
g247
I31946025
sg248
S'TexDolly'
p5547
sa(dp5548
g247
I38180018
sg248
S'Erik_Seidel'
p5549
sa(dp5550
g247
I80700514
sg248
S'RealTracyMorgan'
p5551
sa(dp5552
g247
I20609518
sg248
S'DalaiLama'
p5553
sa(dp5554
g247
I18198400
sg248
S'phil_hellmuth'
p5555
sa(dp5556
g247
I33995409
sg248
S'dwadeofficial'
p5557
sa(dp5558
g247
I50637045
sg248
S'Britt_Holder'
p5559
sa(dp5560
g247
I67707667
sg248
S'LilScrAnj'
p5561
sa(dp5562
g247
I89410714
sg248
S'WALMART_DUDE'
p5563
sa(dp5564
g247
I116313669
sg248
S'LissaMane'
p5565
sa(dp5566
g247
I25521487
sg248
S'danieltosh'
p5567
sa(dp5568
g247
I23235056
sg248
S'KFUCKINGP'
p5569
sa(dp5570
g247
I115485051
sg248
S'ConanOBrien'
p5571
sa(dp5572
g247
I24008967
sg248
S'thesulk'
p5573
sa(dp5574
g247
I159230403
sg248
S'TheRealPITTS'
p5575
sa(dp5576
g247
I25904908
sg248
S'JRsully'
p5577
sa(dp5578
g247
I176312852
sg248
S'BIGGESTKAT365'
p5579
sa(dp5580
g247
I176148129
sg248
S'Pieces810'
p5581
sa(dp5582
g247
I2767301
sg248
S'SLUTTTFOXX'
p5583
sa(dp5584
g247
I123179595
sg248
S'JMurdErz'
p5585
sa(dp5586
g247
I108727529
sg248
S'EverettePrice'
p5587
sa(dp5588
g247
I176653463
sg248
S'OldFuckinCurtis'
p5589
sasg248
g3696
sg393
g394
(S'\x07\xda\x0b\x06\x143\r\x07(\xda'
p5590
tp5591
Rp5592
sa.