(lp0
(dp1
S'tweets'
p2
(lp3
(dp4
S'favorited'
p5
I00
sS'truncated'
p6
I00
sS'text'
p7
S"Only 2 countries haven't ratified Convention on the Rights of the Child (Anti Child Soldiers) - US and Somalia. http://tinyurl.com/3ylpxf3"
p8
sS'created_at'
p9
S'Mon Jun 14 16:25:56 +0000 2010'
p10
sS'retweeted'
p11
I00
sS'coordinates'
p12
NsS'in_reply_to_status_id'
p13
NsS'place'
p14
NsS'in_reply_to_screen_name'
p15
NsS'retweet_count'
p16
NsS'geo'
p17
NsS'id'
p18
I16159915668
sa(dp19
S'favorited'
p20
I00
sS'truncated'
p21
I00
sS'text'
p22
S'http://www.hpae.org/newsroom/articles/20100518_letter'
p23
sS'created_at'
p24
S'Fri Jun 11 19:29:25 +0000 2010'
p25
sS'retweeted'
p26
I00
sS'coordinates'
p27
NsS'in_reply_to_status_id'
p28
NsS'place'
p29
NsS'in_reply_to_screen_name'
p30
NsS'retweet_count'
p31
NsS'geo'
p32
NsS'id'
p33
I15950818516
sa(dp34
S'favorited'
p35
I00
sS'truncated'
p36
I00
sS'text'
p37
S'Janitors should be rebranded "entropy fighters". Way cooler.'
p38
sS'created_at'
p39
S'Thu May 27 17:59:09 +0000 2010'
p40
sS'retweeted'
p41
I00
sS'coordinates'
p42
NsS'in_reply_to_status_id'
p43
NsS'place'
p44
NsS'in_reply_to_screen_name'
p45
NsS'retweet_count'
p46
NsS'geo'
p47
NsS'id'
p48
I14850252677
sa(dp49
S'favorited'
p50
I00
sS'truncated'
p51
I00
sS'text'
p52
S'http://www.google.com'
p53
sS'created_at'
p54
S'Fri May 21 15:18:06 +0000 2010'
p55
sS'retweeted'
p56
I00
sS'coordinates'
p57
NsS'in_reply_to_status_id'
p58
NsS'place'
p59
NsS'in_reply_to_screen_name'
p60
NsS'retweet_count'
p61
NsS'geo'
p62
NsS'id'
p63
I14434346927
sa(dp64
S'favorited'
p65
I00
sS'truncated'
p66
I00
sS'text'
p67
S'Even struggling Haitian farmers still seem to value ethics&safety over cost&ease. Fight the man! http://tinyurl.com/2bd7qxd #IH8Monsanto'
p68
sS'created_at'
p69
S'Wed May 19 18:15:36 +0000 2010'
p70
sS'retweeted'
p71
I00
sS'coordinates'
p72
NsS'in_reply_to_status_id'
p73
NsS'place'
p74
NsS'in_reply_to_screen_name'
p75
NsS'retweet_count'
p76
NsS'geo'
p77
NsS'id'
p78
I14308708643
sa(dp79
S'favorited'
p80
I00
sS'truncated'
p81
I00
sS'text'
p82
S'There are, perhaps, aspects of government more important than the public policy of playgrounds, but I doubt it: http://tinyurl.com/27rbapm'
p83
sS'created_at'
p84
S'Mon May 17 22:22:47 +0000 2010'
p85
sS'retweeted'
p86
I00
sS'coordinates'
p87
NsS'in_reply_to_status_id'
p88
NsS'place'
p89
NsS'in_reply_to_screen_name'
p90
NsS'retweet_count'
p91
NsS'geo'
p92
NsS'id'
p93
I14187103891
sa(dp94
S'favorited'
p95
I00
sS'truncated'
p96
I00
sS'text'
p97
S'Oh! The moon is science too! Now I get it. http://tinyurl.com/22qk39z'
p98
sS'created_at'
p99
S'Fri May 14 20:24:53 +0000 2010'
p100
sS'retweeted'
p101
I00
sS'coordinates'
p102
NsS'in_reply_to_status_id'
p103
NsS'place'
p104
NsS'in_reply_to_screen_name'
p105
NsS'retweet_count'
p106
NsS'geo'
p107
NsS'id'
p108
I13995665866
sa(dp109
S'favorited'
p110
I00
sS'truncated'
p111
I00
sS'text'
p112
S'"All contributions by corporations to any political committee or for any political purpose should be forbidden by law." tinyurl.com/23u8stc'
p113
sS'created_at'
p114
S'Wed May 12 21:31:20 +0000 2010'
p115
sS'retweeted'
p116
I00
sS'coordinates'
p117
NsS'in_reply_to_status_id'
p118
NsS'place'
p119
NsS'in_reply_to_screen_name'
p120
NsS'retweet_count'
p121
NsS'geo'
p122
NsS'id'
p123
I13873054150
sa(dp124
S'favorited'
p125
I00
sS'truncated'
p126
I00
sS'text'
p127
S'Happy Holidays. http://tinyurl.com/y5jz4yf'
p128
sS'created_at'
p129
S'Tue Apr 20 22:09:39 +0000 2010'
p130
sS'retweeted'
p131
I00
sS'coordinates'
p132
NsS'in_reply_to_status_id'
p133
NsS'place'
p134
NsS'in_reply_to_screen_name'
p135
NsS'retweet_count'
p136
NsS'geo'
p137
NsS'id'
p138
I12540191931
sa(dp139
S'favorited'
p140
I00
sS'truncated'
p141
I00
sS'text'
p142
S"'Worthwhile' is an interesting word that should be considered more frequently."
p143
sS'created_at'
p144
S'Tue Nov 10 19:28:45 +0000 2009'
p145
sS'retweeted'
p146
I00
sS'coordinates'
p147
NsS'in_reply_to_status_id'
p148
NsS'place'
p149
NsS'in_reply_to_screen_name'
p150
NsS'retweet_count'
p151
NsS'geo'
p152
NsS'id'
p153
I5596931280
sa(dp154
S'favorited'
p155
I00
sS'truncated'
p156
I00
sS'text'
p157
S'"But where does it stop? Who can we shoot? I don\'t aim to starve to death before I kill the man that\'s starving me."'
p158
sS'created_at'
p159
S'Fri Oct 30 13:57:54 +0000 2009'
p160
sS'retweeted'
p161
I00
sS'coordinates'
p162
NsS'in_reply_to_status_id'
p163
NsS'place'
p164
NsS'in_reply_to_screen_name'
p165
NsS'retweet_count'
p166
NsS'geo'
p167
NsS'id'
p168
I5287619538
sa(dp169
S'favorited'
p170
I00
sS'truncated'
p171
I00
sS'text'
p172
V"Life...was quite simple. You wanted a good time; \u2019they\u2019, ...wanted to stop you having it; you broke the rules as best you could."
p173
sS'created_at'
p174
S'Thu Oct 22 20:32:01 +0000 2009'
p175
sS'retweeted'
p176
I00
sS'coordinates'
p177
NsS'in_reply_to_status_id'
p178
NsS'place'
p179
NsS'in_reply_to_screen_name'
p180
NsS'retweet_count'
p181
NsS'geo'
p182
NsS'id'
p183
I5078609684
sa(dp184
S'favorited'
p185
I00
sS'truncated'
p186
I00
sS'text'
p187
S'Glass coffee table = new huge white board!'
p188
sS'created_at'
p189
S'Tue Oct 13 12:36:54 +0000 2009'
p190
sS'retweeted'
p191
I00
sS'coordinates'
p192
NsS'in_reply_to_status_id'
p193
NsS'place'
p194
NsS'in_reply_to_screen_name'
p195
NsS'retweet_count'
p196
NsS'geo'
p197
NsS'id'
p198
I4833764348
sa(dp199
S'favorited'
p200
I00
sS'truncated'
p201
I00
sS'text'
p202
S'"Alis volat propriis". Back on the 1st.'
p203
sS'created_at'
p204
S'Wed Aug 26 08:12:28 +0000 2009'
p205
sS'retweeted'
p206
I00
sS'coordinates'
p207
NsS'in_reply_to_status_id'
p208
NsS'place'
p209
NsS'in_reply_to_screen_name'
p210
NsS'retweet_count'
p211
NsS'geo'
p212
NsS'id'
p213
I3552757907
sa(dp214
S'favorited'
p215
I00
sS'truncated'
p216
I00
sS'text'
p217
S'chillin with the bro in the natty'
p218
sS'created_at'
p219
S'Sun Aug 23 06:17:57 +0000 2009'
p220
sS'retweeted'
p221
I00
sS'coordinates'
p222
NsS'in_reply_to_status_id'
p223
NsS'place'
p224
NsS'in_reply_to_screen_name'
p225
NsS'retweet_count'
p226
NsS'geo'
p227
NsS'id'
p228
I3487597033
sa(dp229
S'favorited'
p230
I00
sS'truncated'
p231
I00
sS'text'
p232
S'Twitter may or may not be the future. Who will win?'
p233
sS'created_at'
p234
S'Thu Aug 20 05:14:49 +0000 2009'
p235
sS'retweeted'
p236
I00
sS'coordinates'
p237
NsS'in_reply_to_status_id'
p238
NsS'place'
p239
NsS'in_reply_to_screen_name'
p240
NsS'retweet_count'
p241
NsS'geo'
p242
NsS'id'
p243
I3421861529
sa(dp244
S'favorited'
p245
I00
sS'truncated'
p246
I00
sS'text'
p247
S'I am employed! Word.'
p248
sS'created_at'
p249
S'Fri Aug 14 20:42:35 +0000 2009'
p250
sS'retweeted'
p251
I00
sS'coordinates'
p252
NsS'in_reply_to_status_id'
p253
NsS'place'
p254
NsS'in_reply_to_screen_name'
p255
NsS'retweet_count'
p256
NsS'geo'
p257
NsS'id'
p258
I3315217955
sa(dp259
S'favorited'
p260
I00
sS'truncated'
p261
I00
sS'text'
p262
S'http://tr.im/wprl - The Best.'
p263
sS'created_at'
p264
S'Fri Aug 14 17:02:07 +0000 2009'
p265
sS'retweeted'
p266
I00
sS'coordinates'
p267
NsS'in_reply_to_status_id'
p268
NsS'place'
p269
NsS'in_reply_to_screen_name'
p270
NsS'retweet_count'
p271
NsS'geo'
p272
NsS'id'
p273
I3311097567
sasS'followers'
p274
(lp275
S'blarrhug'
p276
aS'chiwendysdeals'
p277
aS'jonahshai'
p278
aS'Ben_Segal'
p279
aS'lrmayer'
p280
aS'real_k_shimmin'
p281
aS'Lisa_Marie75'
p282
aS'UnopenedCatBox'
p283
aS'Pitts_1652'
p284
aS'JeriArnold332'
p285
aS'ElizaRocha914'
p286
aS'rootsreachdown'
p287
aS'zazman'
p288
aS'nuss08'
p289
aS'JennisTheMenace'
p290
aS'philrsquared'
p291
aS'benlarrison'
p292
aS'mikegoldstein1'
p293
aS'dlinder89'
p294
aS'cckeevan'
p295
aS'brandon_fu22755'
p296
aS'matherts'
p297
aS'iansoy'
p298
aS'NU_Sports'
p299
asS'friends'
p300
(lp301
S'blarrhug'
p302
aS'chiwendysdeals'
p303
aS'JimGaffigan'
p304
aS'lakeviewaction'
p305
aS'GrouponNUEv'
p306
aS'real_k_shimmin'
p307
aS'LizzyHandler'
p308
aS'lrmayer'
p309
aS'NUJTE'
p310
aS'shitmydadsays'
p311
aS'Hillel_Jobs'
p312
aS'noahlevin'
p313
aS'NedNedNedNed'
p314
aS'madsciencetist'
p315
aS'TheChern'
p316
aS'nuss08'
p317
aS'JennisTheMenace'
p318
aS'philrsquared'
p319
aS'benlarrison'
p320
aS'dlinder89'
p321
aS'mikegoldstein1'
p322
aS'rootsreachdown'
p323
aS'iansoy'
p324
aS'matherts'
p325
asS'screen_name'
p326
S'SereneSquid'
p327
sS'timestamp'
p328
cdatetime
datetime
p329
(S"\x07\xda\x0b\x08\x16\x04'\rbE"
p330
tp331
Rp332
sa(dp333
g2
(lp334
(dp335
S'favorited'
p336
I00
sS'truncated'
p337
I00
sS'text'
p338
S'Final NW 21, PSU 35'
p339
sS'created_at'
p340
S'Sat Nov 06 22:58:34 +0000 2010'
p341
sS'retweeted'
p342
I00
sS'coordinates'
p343
NsS'in_reply_to_status_id'
p344
NsS'place'
p345
NsS'in_reply_to_screen_name'
p346
NsS'retweet_count'
p347
NsS'geo'
p348
NsS'id'
p349
I1045806467518464
sa(dp350
S'favorited'
p351
I00
sS'truncated'
p352
I00
sS'text'
p353
S'PSU PAT 11:38 4Q, NW 21, PSU 35'
p354
sS'created_at'
p355
S'Sat Nov 06 22:25:22 +0000 2010'
p356
sS'retweeted'
p357
I00
sS'coordinates'
p358
NsS'in_reply_to_status_id'
p359
NsS'place'
p360
NsS'in_reply_to_screen_name'
p361
NsS'retweet_count'
p362
NsS'geo'
p363
NsS'id'
p364
I1037452194086912
sa(dp365
S'favorited'
p366
I00
sS'truncated'
p367
I00
sS'text'
p368
S'PSU Passing TD 11:38 4Q, NW 21, PSU 34'
p369
sS'created_at'
p370
S'Sat Nov 06 22:24:04 +0000 2010'
p371
sS'retweeted'
p372
I00
sS'coordinates'
p373
NsS'in_reply_to_status_id'
p374
NsS'place'
p375
NsS'in_reply_to_screen_name'
p376
NsS'retweet_count'
p377
NsS'geo'
p378
NsS'id'
p379
I1037126384754688
sa(dp380
S'favorited'
p381
I00
sS'truncated'
p382
I00
sS'text'
p383
S'PSU PAT 1:31 3Q, NW 21, PSU 28'
p384
sS'created_at'
p385
S'Sat Nov 06 22:10:44 +0000 2010'
p386
sS'retweeted'
p387
I00
sS'coordinates'
p388
NsS'in_reply_to_status_id'
p389
NsS'place'
p390
NsS'in_reply_to_screen_name'
p391
NsS'retweet_count'
p392
NsS'geo'
p393
NsS'id'
p394
I1033768152342528
sa(dp395
S'favorited'
p396
I00
sS'truncated'
p397
I00
sS'text'
p398
S'PSU Rushing TD 1:31 3Q, NW 21, PSU 27'
p399
sS'created_at'
p400
S'Sat Nov 06 22:10:07 +0000 2010'
p401
sS'retweeted'
p402
I00
sS'coordinates'
p403
NsS'in_reply_to_status_id'
p404
NsS'place'
p405
NsS'in_reply_to_screen_name'
p406
NsS'retweet_count'
p407
NsS'geo'
p408
NsS'id'
p409
I1033614015864833
sa(dp410
S'favorited'
p411
I00
sS'truncated'
p412
I00
sS'text'
p413
S'PSU PAT 5:43 3Q, NW 21, PSU 21'
p414
sS'created_at'
p415
S'Sat Nov 06 21:58:23 +0000 2010'
p416
sS'retweeted'
p417
I00
sS'coordinates'
p418
NsS'in_reply_to_status_id'
p419
NsS'place'
p420
NsS'in_reply_to_screen_name'
p421
NsS'retweet_count'
p422
NsS'geo'
p423
NsS'id'
p424
I1030660848361472
sa(dp425
S'favorited'
p426
I00
sS'truncated'
p427
I00
sS'text'
p428
S'PSU Passing TD 5:43 3Q, NW 21, PSU 20'
p429
sS'created_at'
p430
S'Sat Nov 06 21:57:53 +0000 2010'
p431
sS'retweeted'
p432
I00
sS'coordinates'
p433
NsS'in_reply_to_status_id'
p434
NsS'place'
p435
NsS'in_reply_to_screen_name'
p436
NsS'retweet_count'
p437
NsS'geo'
p438
NsS'id'
p439
I1030536097177601
sa(dp440
S'favorited'
p441
I00
sS'truncated'
p442
I00
sS'text'
p443
S'PSU PAT 9:03 3Q, NW 21, PSU 14'
p444
sS'created_at'
p445
S'Sat Nov 06 21:47:13 +0000 2010'
p446
sS'retweeted'
p447
I00
sS'coordinates'
p448
NsS'in_reply_to_status_id'
p449
NsS'place'
p450
NsS'in_reply_to_screen_name'
p451
NsS'retweet_count'
p452
NsS'geo'
p453
NsS'id'
p454
I1027852224962560
sa(dp455
S'favorited'
p456
I00
sS'truncated'
p457
I00
sS'text'
p458
S'PSU Passing TD 9:03 3Q, NW 21, PSU 13'
p459
sS'created_at'
p460
S'Sat Nov 06 21:47:03 +0000 2010'
p461
sS'retweeted'
p462
I00
sS'coordinates'
p463
NsS'in_reply_to_status_id'
p464
NsS'place'
p465
NsS'in_reply_to_screen_name'
p466
NsS'retweet_count'
p467
NsS'geo'
p468
NsS'id'
p469
I1027809447256064
sa(dp470
S'favorited'
p471
I00
sS'truncated'
p472
I00
sS'text'
p473
S'Halftime NW 21, PSU 7'
p474
sS'created_at'
p475
S'Sat Nov 06 21:14:24 +0000 2010'
p476
sS'retweeted'
p477
I00
sS'coordinates'
p478
NsS'in_reply_to_status_id'
p479
NsS'place'
p480
NsS'in_reply_to_screen_name'
p481
NsS'retweet_count'
p482
NsS'geo'
p483
NsS'id'
p484
I1019593376145408
sa(dp485
S'favorited'
p486
I00
sS'truncated'
p487
I00
sS'text'
p488
S'PSU PAT 0:03 2Q, NW 21, PSU 7'
p489
sS'created_at'
p490
S'Sat Nov 06 21:12:33 +0000 2010'
p491
sS'retweeted'
p492
I00
sS'coordinates'
p493
NsS'in_reply_to_status_id'
p494
NsS'place'
p495
NsS'in_reply_to_screen_name'
p496
NsS'retweet_count'
p497
NsS'geo'
p498
NsS'id'
p499
I1019127728701440
sa(dp500
S'favorited'
p501
I00
sS'truncated'
p502
I00
sS'text'
p503
S'PSU Passing TD 0:03 2Q, NW 21, PSU 6'
p504
sS'created_at'
p505
S'Sat Nov 06 21:10:05 +0000 2010'
p506
sS'retweeted'
p507
I00
sS'coordinates'
p508
NsS'in_reply_to_status_id'
p509
NsS'place'
p510
NsS'in_reply_to_screen_name'
p511
NsS'retweet_count'
p512
NsS'geo'
p513
NsS'id'
p514
I1018505788915712
sa(dp515
S'favorited'
p516
I00
sS'truncated'
p517
I00
sS'text'
p518
S'NW PAT 0:56 2Q, NW 21, PSU 0'
p519
sS'created_at'
p520
S'Sat Nov 06 20:59:35 +0000 2010'
p521
sS'retweeted'
p522
I00
sS'coordinates'
p523
NsS'in_reply_to_status_id'
p524
NsS'place'
p525
NsS'in_reply_to_screen_name'
p526
NsS'retweet_count'
p527
NsS'geo'
p528
NsS'id'
p529
I1015862244937729
sa(dp530
S'favorited'
p531
I00
sS'truncated'
p532
I00
sS'text'
p533
S'NW Passing TD 0:56 2Q, NW 20, PSU 0'
p534
sS'created_at'
p535
S'Sat Nov 06 20:57:33 +0000 2010'
p536
sS'retweeted'
p537
I00
sS'coordinates'
p538
NsS'in_reply_to_status_id'
p539
NsS'place'
p540
NsS'in_reply_to_screen_name'
p541
NsS'retweet_count'
p542
NsS'geo'
p543
NsS'id'
p544
I1015350695038976
sa(dp545
S'favorited'
p546
I00
sS'truncated'
p547
I00
sS'text'
p548
S'2Q: NW 14, PSU 0'
p549
sS'created_at'
p550
S'Sat Nov 06 20:28:32 +0000 2010'
p551
sS'retweeted'
p552
I00
sS'coordinates'
p553
NsS'in_reply_to_status_id'
p554
NsS'place'
p555
NsS'in_reply_to_screen_name'
p556
NsS'retweet_count'
p557
NsS'geo'
p558
NsS'id'
p559
I1008050697670657
sa(dp560
S'favorited'
p561
I00
sS'truncated'
p562
I00
sS'text'
p563
S'2Q: NW 13, PSU 0'
p564
sS'created_at'
p565
S'Sat Nov 06 20:27:53 +0000 2010'
p566
sS'retweeted'
p567
I00
sS'coordinates'
p568
NsS'in_reply_to_status_id'
p569
NsS'place'
p570
NsS'in_reply_to_screen_name'
p571
NsS'retweet_count'
p572
NsS'geo'
p573
NsS'id'
p574
I1007886457110528
sa(dp575
S'favorited'
p576
I00
sS'truncated'
p577
I00
sS'text'
p578
S'NW PAT 12:07 1Q, NW 7, PSU 0'
p579
sS'created_at'
p580
S'Sat Nov 06 19:42:43 +0000 2010'
p581
sS'retweeted'
p582
I00
sS'coordinates'
p583
NsS'in_reply_to_status_id'
p584
NsS'place'
p585
NsS'in_reply_to_screen_name'
p586
NsS'retweet_count'
p587
NsS'geo'
p588
NsS'id'
p589
I996519494819840
sa(dp590
S'favorited'
p591
I00
sS'truncated'
p592
I00
sS'text'
p593
S'NW Rushing TD 12:07 1Q, NW 6, PSU 0'
p594
sS'created_at'
p595
S'Sat Nov 06 19:42:25 +0000 2010'
p596
sS'retweeted'
p597
I00
sS'coordinates'
p598
NsS'in_reply_to_status_id'
p599
NsS'place'
p600
NsS'in_reply_to_screen_name'
p601
NsS'retweet_count'
p602
NsS'geo'
p603
NsS'id'
p604
I996443816992768
sa(dp605
S'favorited'
p606
I00
sS'truncated'
p607
I00
sS'text'
p608
S'Final NW 20, Ind 17'
p609
sS'created_at'
p610
S'Sat Oct 30 19:25:53 +0000 2010'
p611
sS'retweeted'
p612
I00
sS'coordinates'
p613
NsS'in_reply_to_status_id'
p614
NsS'place'
p615
NsS'in_reply_to_screen_name'
p616
NsS'retweet_count'
p617
NsS'geo'
p618
NsS'id'
p619
I29211136747
sa(dp620
S'favorited'
p621
I00
sS'truncated'
p622
I00
sS'text'
p623
S'Ind PAT 0:54 4Q, NW 20, Ind 17'
p624
sS'created_at'
p625
S'Sat Oct 30 19:22:54 +0000 2010'
p626
sS'retweeted'
p627
I00
sS'coordinates'
p628
NsS'in_reply_to_status_id'
p629
NsS'place'
p630
NsS'in_reply_to_screen_name'
p631
NsS'retweet_count'
p632
NsS'geo'
p633
NsS'id'
p634
I29210941052
sasg274
(lp635
S'Taylorville_OMG'
p636
aS'EffinTeaPrty'
p637
aS'EffinRepubs_NEW'
p638
aS'SecurityComm1'
p639
aS'Joanne_chase'
p640
aS'EYSO'
p641
aS'Ashly_4_Charles'
p642
aS'shecookstoo'
p643
aS'KarenHanrahan'
p644
aS'JeffreyaMeier'
p645
aS'Northwesternmag'
p646
aS'msrenee310'
p647
aS'DNA2Diamonds'
p648
aS'DailyKoine'
p649
aS'adamwren'
p650
aS'TastyCatering'
p651
aS'1burdette'
p652
aS'ewebsmart'
p653
aS'hotnikelz'
p654
aS'FitBizWoman'
p655
aS'Hawkluver'
p656
aS'itsmeteddyb'
p657
aS'thetaxdude'
p658
aS'Bezmoney'
p659
aS'northcentralcol'
p660
aS'mtcrookshank'
p661
aS'SmartLudmilla'
p662
aS'jetroxas'
p663
aS'academicstudies'
p664
aS'drikoandra'
p665
aS'michaelslogan'
p666
aS'farnam4'
p667
aS'100Days100Ties'
p668
aS'yourgirlamy'
p669
aS'EvanCourtney'
p670
aS'LeeziaD'
p671
aS'REMAXSPRNGFLD'
p672
aS'tdwelch'
p673
aS'Patch4Wellness'
p674
aS'jimstarwalt'
p675
aS'CheapREI'
p676
aS'randylewiskemp'
p677
aS'keldabaljon'
p678
aS'Esoxgolf'
p679
aS'drg556'
p680
aS'TheMTFoundation'
p681
aS'NatalieWHall'
p682
aS'berniedog'
p683
aS'BrightBin'
p684
aS'EvanstonChamber'
p685
aS'norriscenter'
p686
aS'NathanEnfield'
p687
aS'evanstonweb'
p688
aS'evanstonsocial'
p689
aS'demetrithefish'
p690
aS'zachhubbard'
p691
aS'ehblass'
p692
aS'bgarfoot'
p693
aS'karioca'
p694
aS'Matt_idofilms'
p695
aS'EvanstonNow'
p696
aS'SheriD'
p697
aS'tennismom2'
p698
aS'joefaz'
p699
aS'JoelWarady'
p700
aS'DannyOrtegon'
p701
aS'stewartn'
p702
aS'buynugear'
p703
aS'scorely'
p704
asg300
(lp705
S'dwayne1957'
p706
aS'DailyKoine'
p707
aS'hzomayah'
p708
aS'DNA2Diamonds'
p709
aS'takeiteasy1239'
p710
aS'kapilville'
p711
aS'shoeschrist'
p712
aS'onehurtlady'
p713
aS'TParrington'
p714
aS'abc7chicago'
p715
aS'chairforce'
p716
aS'TheRadioFM'
p717
aS'jackbyrnes'
p718
aS'givethelight'
p719
aS'jennaXelizabeth'
p720
aS'musicforte'
p721
aS'EmoBoiLova16'
p722
aS'donnamariasu'
p723
aS'lassdev'
p724
aS'MissKellyOJ'
p725
aS'cmbruce2'
p726
aS'JusShar'
p727
aS'jasonsecrest'
p728
aS'momsherbs'
p729
aS'kaitlin1969'
p730
aS'Affiliatehelp'
p731
aS'gwellness'
p732
aS'donotgiveup'
p733
aS'self_help_books'
p734
aS'ddiamond77'
p735
aS'DalkullanJewel'
p736
aS'robinben'
p737
aS'tylerclay'
p738
aS'WingmanIL'
p739
aS'ewebsmart'
p740
aS'icirr'
p741
aS'NIJC'
p742
aS'KDixler'
p743
aS'katiefeltz'
p744
aS'DJPETERC'
p745
aS'authoritydomain'
p746
aS'PoeticPrincesss'
p747
aS'Blagica'
p748
aS'BreeeLovesYouu'
p749
aS'Ryan875'
p750
aS'MCACN'
p751
aS'hometelecommute'
p752
aS'harrietb'
p753
aS'L7DaKiddBear'
p754
aS'chicagoflooring'
p755
aS'markmulvihill'
p756
aS'Hawkluver'
p757
aS'ZudaGay'
p758
aS'naughtykitty64'
p759
aS'liveleehood'
p760
aS'ccruz1989'
p761
aS'caitlinroak'
p762
aS'ohthatCarolina'
p763
aS'sallas'
p764
aS'derbymailman'
p765
aS'JillR2086'
p766
aS'RooR_59_82'
p767
aS'ashleyobrien'
p768
aS'jennifermullin'
p769
aS'nikkigirrl'
p770
aS'poshjosh'
p771
aS'Vote4Wallace'
p772
aS'itsmeteddyb'
p773
aS'MichaelFry'
p774
aS'meg_vanderbaan'
p775
aS'dbug4'
p776
aS'Sprecket'
p777
aS'adreinhard'
p778
aS'stevemedina'
p779
aS'ScoresChicago'
p780
aS'iear'
p781
aS'GLITTERSTARZ'
p782
aS'myDaVinci'
p783
aS'kisberg'
p784
aS'iHearYaJoe'
p785
aS'FF101'
p786
aS'Recasm'
p787
aS'adyrcz'
p788
aS'tristano'
p789
aS'Tathagata'
p790
aS'Vetashep'
p791
aS'sirhempanite89'
p792
aS'threadfx'
p793
aS'bwgassman'
p794
aS'BellaPrincess09'
p795
aS'wragechels'
p796
aS'thedramascene'
p797
aS'MrSwaggahimself'
p798
aS'Aldbiz'
p799
aS'IllinoisLocal'
p800
aS'richfrompana'
p801
aS'AnikaAllTimeLow'
p802
aS'lilabeast'
p803
aS'SteveBorgman'
p804
aS'eejjennings'
p805
asg326
S'NWwildcats_cfb'
p806
sg328
g329
(S'\x07\xda\x0b\x08\x16\x04.\x0f"\x96'
p807
tp808
Rp809
sa(dp810
g2
(lp811
(dp812
S'favorited'
p813
I00
sS'truncated'
p814
I00
sS'text'
p815
S'Tagged: @opmphoto @lisawuhartwell @kwanzahall - http://twitpic.com/34xf14'
p816
sS'created_at'
p817
S'Tue Nov 09 02:20:05 +0000 2010'
p818
sS'retweeted'
p819
I00
sS'coordinates'
p820
NsS'in_reply_to_status_id'
p821
NsS'place'
p822
NsS'in_reply_to_screen_name'
p823
NsS'retweet_count'
p824
NsS'geo'
p825
NsS'id'
p826
I1821297906552832
sa(dp827
S'favorited'
p828
I00
sS'truncated'
p829
I00
sS'text'
p830
S'#in http://twitpic.com/34xhmy @kwanzahall ,Emory University Dean of the School of Business, @opmphoto , (cont) http://tl.gd/6s3pv8'
p831
sS'created_at'
p832
S'Mon Nov 08 02:31:40 +0000 2010'
p833
sS'retweeted'
p834
I00
sS'coordinates'
p835
NsS'in_reply_to_status_id'
p836
NsS'place'
p837
NsS'in_reply_to_screen_name'
p838
NsS'retweet_count'
p839
NsS'geo'
p840
NsS'id'
p841
I1461825270980610
sa(dp842
S'favorited'
p843
I00
sS'truncated'
p844
I00
sS'text'
p845
S"http://twitpic.com/34xf14 @kwanzahall @LisaWuHartwell and @opmphoto celebrating Moses Robinson's Birthday @JonellMediaPR best PR ever!"
p846
sS'created_at'
p847
S'Mon Nov 08 01:47:39 +0000 2010'
p848
sS'retweeted'
p849
I00
sS'coordinates'
p850
NsS'in_reply_to_status_id'
p851
NsS'place'
p852
NsS'in_reply_to_screen_name'
p853
NsS'retweet_count'
p854
NsS'geo'
p855
NsS'id'
p856
I1450746843242497
sa(dp857
S'favorited'
p858
I00
sS'truncated'
p859
I00
sS'text'
p860
S"http://twitpic.com/34wszp listening to @djkiddkobyroc spin with @kwanzahall and celebrating Moses Robinson's (cont) http://tl.gd/6s2kqi"
p861
sS'created_at'
p862
S'Mon Nov 08 00:20:39 +0000 2010'
p863
sS'retweeted'
p864
I00
sS'coordinates'
p865
NsS'in_reply_to_status_id'
p866
NsS'place'
p867
NsS'in_reply_to_screen_name'
p868
NsS'retweet_count'
p869
NsS'geo'
p870
NsS'id'
p871
I1428852920295424
sa(dp872
S'favorited'
p873
I00
sS'truncated'
p874
I00
sS'text'
p875
S'http://twitpic.com/34vbb8 @kwanzahall and I are bowling in support of Operation Peace. My shoes are bright!'
p876
sS'created_at'
p877
S'Sun Nov 07 21:01:53 +0000 2010'
p878
sS'retweeted'
p879
I00
sS'coordinates'
p880
NsS'in_reply_to_status_id'
p881
NsS'place'
p882
NsS'in_reply_to_screen_name'
p883
NsS'retweet_count'
p884
NsS'geo'
p885
NsS'id'
p886
I1378832242188289
sa(dp887
S'favorited'
p888
I00
sS'truncated'
p889
I00
sS'text'
p890
S'RT @RevAdamC: @NatalieWHall Hi  , I would like to invite you to join us in Jerusalem this Christmas. All (cont) http://tl.gd/6rv97m'
p891
sS'created_at'
p892
S'Sun Nov 07 17:10:48 +0000 2010'
p893
sS'retweeted'
p894
I00
sS'coordinates'
p895
NsS'in_reply_to_status_id'
p896
NsS'place'
p897
NsS'in_reply_to_screen_name'
p898
NsS'retweet_count'
p899
NsS'geo'
p900
NsS'id'
p901
I1320676635967488
sa(dp902
S'favorited'
p903
I00
sS'truncated'
p904
I00
sS'text'
p905
S'@mzmogul and I attended Spin class tonight. All I can say is WHOA...WOW...POW! Thx @gingerdwhite http://www.nolimitcycling.com'
p906
sS'created_at'
p907
S'Thu Nov 04 03:51:27 +0000 2010'
p908
sS'retweeted'
p909
I00
sS'coordinates'
p910
NsS'in_reply_to_status_id'
p911
NsS'place'
p912
NsS'in_reply_to_screen_name'
p913
S'MzMogul'
p914
sS'retweet_count'
p915
NsS'geo'
p916
NsS'id'
p917
I29637769988
sa(dp918
S'favorited'
p919
I00
sS'truncated'
p920
I00
sS'text'
p921
S'ME TOO! RT @MzMogul: RT @NatalieWHall: @mzdeeatl @mzmogul and I attended the For Colored Girls movie screening (cont) http://tl.gd/6phfi9'
p922
sS'created_at'
p923
S'Wed Nov 03 02:27:48 +0000 2010'
p924
sS'retweeted'
p925
I00
sS'coordinates'
p926
NsS'in_reply_to_status_id'
p927
NsS'place'
p928
NsS'in_reply_to_screen_name'
p929
NsS'retweet_count'
p930
NsS'geo'
p931
NsS'id'
p932
I29532088273
sa(dp933
S'favorited'
p934
I00
sS'truncated'
p935
I00
sS'text'
p936
S"I hope you Voted today. Don't complain if you don't vote to make things change. Your vote has the power to change things."
p937
sS'created_at'
p938
S'Wed Nov 03 01:54:12 +0000 2010'
p939
sS'retweeted'
p940
I00
sS'coordinates'
p941
NsS'in_reply_to_status_id'
p942
NsS'place'
p943
NsS'in_reply_to_screen_name'
p944
NsS'retweet_count'
p945
NsS'geo'
p946
NsS'id'
p947
I29529327380
sa(dp948
S'favorited'
p949
I00
sS'truncated'
p950
I00
sS'text'
p951
S'"@brandiray: If u don\'t vote 2day, well let me know so when u complain about the results I can #mute u." Yes, Vote and stand for something!'
p952
sS'created_at'
p953
S'Tue Nov 02 12:38:38 +0000 2010'
p954
sS'retweeted'
p955
I00
sS'coordinates'
p956
NsS'in_reply_to_status_id'
p957
NsS'place'
p958
NsS'in_reply_to_screen_name'
p959
NsS'retweet_count'
p960
NsS'geo'
p961
NsS'id'
p962
I29465506395
sa(dp963
S'favorited'
p964
I00
sS'truncated'
p965
I00
sS'text'
p966
S'#in $47million for downtown Atlanta streetcar- thanks @raylahood @johnlewis http://t.co/L8okEFs via @kwanzahall'
p967
sS'created_at'
p968
S'Tue Nov 02 04:36:31 +0000 2010'
p969
sS'retweeted'
p970
I00
sS'coordinates'
p971
NsS'in_reply_to_status_id'
p972
NsS'place'
p973
NsS'in_reply_to_screen_name'
p974
NsS'retweet_count'
p975
NsS'geo'
p976
NsS'id'
p977
I29440525473
sa(dp978
S'favorited'
p979
I00
sS'truncated'
p980
I00
sS'text'
p981
S'RT @JonellMediaPR: RT @NatalieWHall: @JonellMediaPR Your professionalism is outstanding. Thanks! It was an (cont) http://tl.gd/6p1r86'
p982
sS'created_at'
p983
S'Tue Nov 02 04:24:04 +0000 2010'
p984
sS'retweeted'
p985
I00
sS'coordinates'
p986
NsS'in_reply_to_status_id'
p987
NsS'place'
p988
NsS'in_reply_to_screen_name'
p989
NsS'retweet_count'
p990
NsS'geo'
p991
NsS'id'
p992
I29439752475
sa(dp993
S'favorited'
p994
I00
sS'truncated'
p995
I00
sS'text'
p996
S'@JonellMediaPR Your professionalism is outstanding. Thanks! It was an amazing movie...very emotional!'
p997
sS'created_at'
p998
S'Tue Nov 02 04:02:28 +0000 2010'
p999
sS'retweeted'
p1000
I00
sS'coordinates'
p1001
NsS'in_reply_to_status_id'
p1002
NsS'place'
p1003
NsS'in_reply_to_screen_name'
p1004
S'JonellMediaPR'
p1005
sS'retweet_count'
p1006
NsS'geo'
p1007
NsS'id'
p1008
I29438318375
sa(dp1009
S'favorited'
p1010
I00
sS'truncated'
p1011
I00
sS'text'
p1012
S'@mzdeeatl @mzmogul and I attended the For Colored Girls movie screening tonight. It was very emotional. @lionsgaterise http://t.co/09CuL7L'
p1013
sS'created_at'
p1014
S'Tue Nov 02 03:52:31 +0000 2010'
p1015
sS'retweeted'
p1016
I00
sS'coordinates'
p1017
NsS'in_reply_to_status_id'
p1018
NsS'place'
p1019
NsS'in_reply_to_screen_name'
p1020
S'Mzdeeatl'
p1021
sS'retweet_count'
p1022
NsS'geo'
p1023
NsS'id'
p1024
I29437619456
sasg274
(lp1025
S'Marcus2braids'
p1026
aS'LinkedBikers'
p1027
aS'headhaunchos'
p1028
aS'AtlantaDNA'
p1029
aS'FitClubNetwork'
p1030
aS'MoiraSuch1196'
p1031
aS'MadPolitics'
p1032
aS'atlantafsbo'
p1033
aS'NikkWashington'
p1034
aS'StudentRate'
p1035
aS'GoogleMapUpdate'
p1036
aS'jahaircare'
p1037
aS'HmmaAug4'
p1038
aS'cartoonpj5'
p1039
aS'1ChessKing'
p1040
aS'Haloindianhair'
p1041
aS'TharonJohnson'
p1042
aS'MaintainFame'
p1043
aS'MyMariaMore'
p1044
aS'G3atlanta'
p1045
aS'iFREAKNiK'
p1046
aS'nicolas_jacksky'
p1047
aS'namenick'
p1048
aS'Hotelstostay'
p1049
aS'Letkocycles'
p1050
aS'Update_Heating'
p1051
aS'xoLolitaGirl'
p1052
aS'PadriacsVinings'
p1053
aS'NYCHipHop'
p1054
aS'LADDdenim'
p1055
aS'Political_Views'
p1056
aS'djnabsinlab'
p1057
aS'GriotPix'
p1058
aS'PaulBrounforGA'
p1059
aS'wordpressxpress'
p1060
aS'hccedmonton'
p1061
aS'pagelforjudge'
p1062
aS'KellzTellz'
p1063
aS'NWwildcats_cfb'
p1064
aS'ATLHallweenBall'
p1065
aS'jwalkr'
p1066
aS'Syesha'
p1067
aS'Enamor_Atlanta'
p1068
aS'WomenSayNoDeal'
p1069
aS'WoodysATL'
p1070
aS'sheatsb'
p1071
aS'SnagBuy'
p1072
aS'edenWXIA'
p1073
aS'BirthControlBuz'
p1074
aS'kphanson'
p1075
aS'DatniggaNeeko'
p1076
aS'CorasTWEETS'
p1077
aS'MovieExtraCast'
p1078
aS'City_of_Atlanta'
p1079
aS'AccessoryAtl'
p1080
aS'Josephinelounge'
p1081
aS'SeanSaintLouis'
p1082
aS'wealthformula7'
p1083
aS'dgugnani'
p1084
aS'Twogether4ever'
p1085
aS'AskJazzy'
p1086
aS'TheMercantile'
p1087
aS'VRTagency'
p1088
aS'LV_BU_Burberry'
p1089
aS'MetroABN'
p1090
aS'blackatlanta'
p1091
aS'corretorpaulo'
p1092
aS'EvgenijFeder'
p1093
aS'MotorcycleStop'
p1094
aS'mypoliticsusa'
p1095
aS'iPartyATL'
p1096
aS'iChauncey'
p1097
aS'Juicy_Sales'
p1098
aS'theatlgo2girl'
p1099
aS'DealmapAtlanta'
p1100
aS'LuxeWin'
p1101
aS'MsAntoinetteD'
p1102
aS'James_Mills_GA'
p1103
aS'chicagopatch'
p1104
aS'handbag9'
p1105
aS'MiuMiu_Handbag'
p1106
aS'wgcandis33jv'
p1107
aS'KasimReed'
p1108
aS'SocialMedia_ATL'
p1109
aS'loriruff'
p1110
aS'SebastianDeLara'
p1111
aS'EtrogOnline'
p1112
aS'LennysAtlanta'
p1113
aS'GracesGoodness'
p1114
aS'Noni_lover'
p1115
aS'Yumbii'
p1116
aS'GALatinoCaucus'
p1117
aS'hidingplaceby'
p1118
aS'gawomenvote'
p1119
aS'CafeCirca'
p1120
aS'netlawmedia'
p1121
aS'carolinaglflnks'
p1122
aS'ATLStreetsAlive'
p1123
aS'SPOOWauctions'
p1124
aS'AroshaDesign'
p1125
asg300
(lp1126
S'opmphoto'
p1127
aS'DJKiddKobyRoc'
p1128
aS'LinkedBikers'
p1129
aS'AtlantaDNA'
p1130
aS'atlantafsbo'
p1131
aS'Fashion_Mars'
p1132
aS'AtlantaSpaOwner'
p1133
aS'gingerdwhite'
p1134
aS'StudentRate'
p1135
aS'DC2ATL'
p1136
aS'PlutopiaLive'
p1137
aS'TharonJohnson'
p1138
aS'OperaNightclub'
p1139
aS'COMMISHBELL'
p1140
aS'MyMariaMore'
p1141
aS'marvinarrington'
p1142
aS'vincephillips'
p1143
aS'G3atlanta'
p1144
aS'xoLolitaGirl'
p1145
aS'Political_Views'
p1146
aS'djnabsinlab'
p1147
aS'GriotPix'
p1148
aS'Syesha'
p1149
aS'ATLHallweenBall'
p1150
aS'NWwildcats_cfb'
p1151
aS'KellzTellz'
p1152
aS'kphanson'
p1153
aS'sheatsb'
p1154
aS'Enamor_Atlanta'
p1155
aS'edenWXIA'
p1156
aS'CorasTWEETS'
p1157
aS'RaphaelGWarnock'
p1158
aS'ArtTerrell'
p1159
aS'goclay'
p1160
aS'AccessoryAtl'
p1161
aS'AtlantaDream'
p1162
aS'dgugnani'
p1163
aS'AskJazzy'
p1164
aS'FlashPA'
p1165
aS'AmericasMartATL'
p1166
aS'iChauncey'
p1167
aS'MidtownATL'
p1168
aS'VRTagency'
p1169
aS'valleygirlpro'
p1170
aS'MetroABN'
p1171
aS'blackatlanta'
p1172
aS'CalTweetBot'
p1173
aS'LeeMay'
p1174
aS'TheMercantile'
p1175
aS'mypoliticsusa'
p1176
aS'iPartyATL'
p1177
aS'HouseRep59'
p1178
aS'theatlgo2girl'
p1179
aS'Adrenealin'
p1180
aS'HouseofAdrene'
p1181
aS'James_Mills_GA'
p1182
aS'MsAntoinetteD'
p1183
aS'chicagopatch'
p1184
aS'TreySongz'
p1185
aS'serenbe'
p1186
aS'TuckerBerta'
p1187
aS'posterous'
p1188
aS'cheftcafe'
p1189
aS'SocialMedia_ATL'
p1190
aS'TONISMALLS'
p1191
aS'loriruff'
p1192
aS'POLOtheeDON'
p1193
aS'SebastianDeLara'
p1194
aS'anticopizza'
p1195
aS'LennysAtlanta'
p1196
aS'yeahburger'
p1197
aS'shaundoty'
p1198
aS'GracesGoodness'
p1199
aS'annkimbrough'
p1200
aS'Yumbii'
p1201
aS'gawomenvote'
p1202
aS'netlawmedia'
p1203
aS'carolinaglflnks'
p1204
aS'BoncyBoutique'
p1205
aS'TheArtmoreHotel'
p1206
aS'ScottWilliams'
p1207
aS'HawaiianReviews'
p1208
aS'AroshaDesign'
p1209
aS'RokDiesel'
p1210
aS'SFreshFans'
p1211
aS'InferisOnline'
p1212
aS'BUZZ_BEAST'
p1213
aS'CafeCirca'
p1214
aS'SDeLaraR'
p1215
aS'revelmob'
p1216
aS'BetterMornings'
p1217
aS'Newstalk1160'
p1218
aS'JUBILEEmagazine'
p1219
aS'GlobalNetworker'
p1220
aS'TakersMovie'
p1221
aS'xinghailiang'
p1222
aS'BobovFeed'
p1223
aS'2mexico'
p1224
aS'EliteTravels'
p1225
aS'AllTalent'
p1226
asg326
g682
sg328
g329
(S'\x07\xda\x0b\x08\x16\x047\x0cf\x85'
p1227
tp1228
Rp1229
sa(dp1230
g2
(lp1231
(dp1232
S'favorited'
p1233
I00
sS'truncated'
p1234
I00
sS'text'
p1235
S'@mac_suga http://on.fb.me/c6z41J'
p1236
sS'created_at'
p1237
S'Sun Nov 07 16:43:42 +0000 2010'
p1238
sS'retweeted'
p1239
I00
sS'coordinates'
p1240
NsS'in_reply_to_status_id'
p1241
I1313555458555904
sS'place'
p1242
NsS'in_reply_to_screen_name'
p1243
S'mac_suga'
p1244
sS'retweet_count'
p1245
NsS'geo'
p1246
NsS'id'
p1247
I1313855728787457
sa(dp1248
S'favorited'
p1249
I00
sS'truncated'
p1250
I00
sS'text'
p1251
S"All this trending about the Ducati M1100evo, but no one is saying what's important:  aircooled & 100 HP!"
p1252
sS'created_at'
p1253
S'Sat Nov 06 18:30:43 +0000 2010'
p1254
sS'retweeted'
p1255
I00
sS'coordinates'
p1256
NsS'in_reply_to_status_id'
p1257
NsS'place'
p1258
NsS'in_reply_to_screen_name'
p1259
NsS'retweet_count'
p1260
NsS'geo'
p1261
NsS'id'
p1262
I978399182983168
sa(dp1263
S'favorited'
p1264
I00
sS'truncated'
p1265
I00
sS'text'
p1266
S'@DanLivingstone  like, Costa Rica?'
p1267
sS'created_at'
p1268
S'Sat Nov 06 16:47:00 +0000 2010'
p1269
sS'retweeted'
p1270
I00
sS'coordinates'
p1271
NsS'in_reply_to_status_id'
p1272
I951096889581568
sS'place'
p1273
NsS'in_reply_to_screen_name'
p1274
S'DanLivingstone'
p1275
sS'retweet_count'
p1276
NsS'geo'
p1277
NsS'id'
p1278
I952301112008704
sa(dp1279
S'favorited'
p1280
I00
sS'truncated'
p1281
I00
sS'text'
p1282
S'The last race of the MotoGP season is tomorrow in Valencia.  Watch and wish Casey Stoner farewell on his last race... http://fb.me/yxoJxNu9'
p1283
sS'created_at'
p1284
S'Sat Nov 06 15:22:47 +0000 2010'
p1285
sS'retweeted'
p1286
I00
sS'coordinates'
p1287
NsS'in_reply_to_status_id'
p1288
NsS'place'
p1289
NsS'in_reply_to_screen_name'
p1290
NsS'retweet_count'
p1291
NsS'geo'
p1292
NsS'id'
p1293
I931107453276160
sa(dp1294
S'favorited'
p1295
I00
sS'truncated'
p1296
I00
sS'text'
p1297
S'@cronan NICE!!'
p1298
sS'created_at'
p1299
S'Sat Nov 06 00:04:55 +0000 2010'
p1300
sS'retweeted'
p1301
I00
sS'coordinates'
p1302
NsS'in_reply_to_status_id'
p1303
I697982001352706
sS'place'
p1304
NsS'in_reply_to_screen_name'
p1305
S'cronan'
p1306
sS'retweet_count'
p1307
NsS'geo'
p1308
NsS'id'
p1309
I700116071612417
sa(dp1310
S'favorited'
p1311
I00
sS'truncated'
p1312
I00
sS'text'
p1313
S'ZOMG!  Isle of Man TT: Milestones of the Mountain! File under: "I want to go!"\nhttp://bit.ly/a5M9x2 http://fb.me/JkiCeMyM'
p1314
sS'created_at'
p1315
S'Fri Nov 05 23:29:58 +0000 2010'
p1316
sS'retweeted'
p1317
I00
sS'coordinates'
p1318
NsS'in_reply_to_status_id'
p1319
NsS'place'
p1320
NsS'in_reply_to_screen_name'
p1321
NsS'retweet_count'
p1322
NsS'geo'
p1323
NsS'id'
p1324
I691320121204736
sa(dp1325
S'favorited'
p1326
I00
sS'truncated'
p1327
I00
sS'text'
p1328
S'Big thanks to all those that came out today! We sold a number of KTMs and even a couple Ducatis: it was a good day and we thank you 4 it!'
p1329
sS'created_at'
p1330
S'Fri Nov 05 23:25:38 +0000 2010'
p1331
sS'retweeted'
p1332
I00
sS'coordinates'
p1333
NsS'in_reply_to_status_id'
p1334
NsS'place'
p1335
NsS'in_reply_to_screen_name'
p1336
NsS'retweet_count'
p1337
NsS'geo'
p1338
NsS'id'
p1339
I690232655618049
sa(dp1340
S'favorited'
p1341
I00
sS'truncated'
p1342
I00
sS'text'
p1343
S'@AndersonMatthew dont do that'
p1344
sS'created_at'
p1345
S'Fri Nov 05 21:45:46 +0000 2010'
p1346
sS'retweeted'
p1347
I00
sS'coordinates'
p1348
NsS'in_reply_to_status_id'
p1349
I661832503132160
sS'place'
p1350
NsS'in_reply_to_screen_name'
p1351
S'AndersonMatthew'
p1352
sS'retweet_count'
p1353
NsS'geo'
p1354
NsS'id'
p1355
I665097580060672
sa(dp1356
S'favorited'
p1357
I00
sS'truncated'
p1358
I00
sS'text'
p1359
S'Want pics of the 2011 KTM line-up?  Thank me later:\nhttp://bit.ly/cPgoW5 http://fb.me/Jvt7M9FE'
p1360
sS'created_at'
p1361
S'Thu Nov 04 20:53:23 +0000 2010'
p1362
sS'retweeted'
p1363
I00
sS'coordinates'
p1364
NsS'in_reply_to_status_id'
p1365
NsS'place'
p1366
NsS'in_reply_to_screen_name'
p1367
NsS'retweet_count'
p1368
NsS'geo'
p1369
NsS'id'
p1370
I29700207281
sa(dp1371
S'favorited'
p1372
I00
sS'truncated'
p1373
I00
sS'text'
p1374
S"@TylerSchmidt That depends if you don't look at the Ducati Multistrada or Diavel or Hypermotard as design risks"
p1375
sS'created_at'
p1376
S'Thu Nov 04 20:51:40 +0000 2010'
p1377
sS'retweeted'
p1378
I00
sS'coordinates'
p1379
NsS'in_reply_to_status_id'
p1380
I29699991704
sS'place'
p1381
NsS'in_reply_to_screen_name'
p1382
S'TylerSchmidt'
p1383
sS'retweet_count'
p1384
NsS'geo'
p1385
NsS'id'
p1386
I29700088865
sa(dp1387
S'favorited'
p1388
I00
sS'truncated'
p1389
I00
sS'text'
p1390
S'Looks like Progressive Insurance is using a Ducati M796 in an upcoming advert.\nSource: Ducati on Facebook http://fb.me/A5AEzIo6'
p1391
sS'created_at'
p1392
S'Thu Nov 04 18:24:16 +0000 2010'
p1393
sS'retweeted'
p1394
I00
sS'coordinates'
p1395
NsS'in_reply_to_status_id'
p1396
NsS'place'
p1397
NsS'in_reply_to_screen_name'
p1398
NsS'retweet_count'
p1399
NsS'geo'
p1400
NsS'id'
p1401
I29690050159
sa(dp1402
S'favorited'
p1403
I00
sS'truncated'
p1404
I00
sS'text'
p1405
S'What does it take to prepare to work at a shop like Letko and sell Ducati and KTMs all day?  SPIRIT!  How do you... http://fb.me/NlrKG2QZ'
p1406
sS'created_at'
p1407
S'Thu Nov 04 13:38:01 +0000 2010'
p1408
sS'retweeted'
p1409
I00
sS'coordinates'
p1410
NsS'in_reply_to_status_id'
p1411
NsS'place'
p1412
NsS'in_reply_to_screen_name'
p1413
NsS'retweet_count'
p1414
NsS'geo'
p1415
NsS'id'
p1416
I29668635357
sa(dp1417
S'favorited'
p1418
I00
sS'truncated'
p1419
I00
sS'text'
p1420
S'Check this video out -- Letko Opening Duties http://t.co/eiMq4JY via @youtube'
p1421
sS'created_at'
p1422
S'Thu Nov 04 04:48:55 +0000 2010'
p1423
sS'retweeted'
p1424
I00
sS'coordinates'
p1425
NsS'in_reply_to_status_id'
p1426
NsS'place'
p1427
NsS'in_reply_to_screen_name'
p1428
NsS'retweet_count'
p1429
NsS'geo'
p1430
NsS'id'
p1431
I29641108483
sasg274
(lp1432
S'lcbknowscars'
p1433
aS'motorfun'
p1434
aS'alexharrisSM'
p1435
aS'BikeBags'
p1436
aS'cronan'
p1437
aS'frank_depalma'
p1438
aS'dakaroverland'
p1439
aS'coolcycledude'
p1440
aS'MotoRaceFeed'
p1441
aS'FastGearFast'
p1442
aS'BikeEXIF'
p1443
aS'KevPezGoDakar'
p1444
aS'motorbikehub'
p1445
aS'Wigan13'
p1446
aS'NetProfitServ'
p1447
aS'pegscrapers'
p1448
aS'wanderingbiker'
p1449
aS'fantasygarage1'
p1450
aS'Krista_S_Mead'
p1451
aS'IndieNickKCity'
p1452
aS'Kawasaki_Store'
p1453
aS'pbac22'
p1454
aS'MotoGP4u'
p1455
aS'Irish31769'
p1456
aS'HelmetsandArmor'
p1457
aS'Dean_Wells'
p1458
aS'cookeba'
p1459
aS'MaseiDesign'
p1460
aS'DellaFerrera'
p1461
aS'BrammoSays'
p1462
aS'Ducati_Bikes'
p1463
aS'iLoveHandles'
p1464
aS'motogptimingapp'
p1465
aS'NitroKings'
p1466
aS'fatmoto'
p1467
aS'thehelmetcenter'
p1468
aS'sajonf'
p1469
aS'angelogiannosa'
p1470
aS'arsenalfankc'
p1471
aS'Motourage'
p1472
aS'DaveMinella'
p1473
aS'GM69Nicky'
p1474
aS'ToroTrail'
p1475
aS'roadracerxmag'
p1476
aS'i_parker'
p1477
aS'AndersonMatthew'
p1478
aS'IndiaCycle'
p1479
aS'mtbikesi'
p1480
aS'UltimateStunt'
p1481
aS'pauldangerkile'
p1482
aS'SantaFeTow'
p1483
aS'kendibritton'
p1484
aS'projectmodified'
p1485
aS'MIKEJONESPE'
p1486
aS'gdw_062'
p1487
aS'jiaotys'
p1488
aS'ohthebill'
p1489
aS'MOTOMIDWEST'
p1490
aS'Hughmwatson'
p1491
aS'MMPDiscountTix'
p1492
aS'motoaktuel'
p1493
aS'k_piamjariyakul'
p1494
aS'mayhemstyle'
p1495
aS'colleeneide'
p1496
aS'keitht09'
p1497
aS'AdvRiderDude'
p1498
aS'wingland'
p1499
aS'TeamStunters'
p1500
aS'wforacingonline'
p1501
aS'CorvairAllen'
p1502
aS'RRCustomz'
p1503
aS'rodneycain'
p1504
aS'sassage'
p1505
aS'EvilBahumut'
p1506
aS'GiantLoopMoto'
p1507
aS'ducatiseattle'
p1508
aS'wetbikinim5'
p1509
aS'ducatinewstoday'
p1510
aS'sportchrome'
p1511
aS'TweetDeck'
p1512
aS'rentmotorcycles'
p1513
aS'kellyk21'
p1514
aS'LiveTechVideo'
p1515
aS'duck748'
p1516
aS'husker87'
p1517
aS'Steve907'
p1518
aS'BikeApparels'
p1519
aS'misterRyanBlass'
p1520
aS'wolfsnout'
p1521
aS'bugs_skeleton'
p1522
aS'NCMonline'
p1523
aS'NYCMF'
p1524
aS'MsAshleyWilson'
p1525
aS'florpal'
p1526
aS'supagolder'
p1527
aS'jtwreet'
p1528
aS'KTM_Racing'
p1529
aS'caseymatson'
p1530
aS'm_a_d_o_g'
p1531
asg300
(lp1532
S'alexharrisSM'
p1533
aS'motorfun'
p1534
aS'MotosikletNet'
p1535
aS'frank_depalma'
p1536
aS'cronan'
p1537
aS'EncoreBoutique'
p1538
aS'coolcycledude'
p1539
aS'therpmlounge'
p1540
aS'SUPERCROSScom'
p1541
aS'PitPassRadio'
p1542
aS'FastGearFast'
p1543
aS'sitzmarksports'
p1544
aS'SLMotorsports'
p1545
aS'ProItalia'
p1546
aS'DucatiMiami'
p1547
aS'KevPezGoDakar'
p1548
aS'erichoenshell'
p1549
aS'RacePBIR'
p1550
aS'TannerFoust'
p1551
aS'amaproracing'
p1552
aS'worldsbk'
p1553
aS'BarberMotorPark'
p1554
aS'suzuka_circuit'
p1555
aS'pegscrapers'
p1556
aS'fantasygarage1'
p1557
aS'motoelectric'
p1558
aS'wanderingbiker'
p1559
aS'elenamyers21'
p1560
aS'hiroshiaoyama'
p1561
aS'MariaCostello'
p1562
aS'BozBros'
p1563
aS'67Shakey'
p1564
aS'CarlosCheca7'
p1565
aS'jonathanrea'
p1566
aS'KevinSchwantz'
p1567
aS'AshleyFiolek67'
p1568
aS'JoleneNitroGirl'
p1569
aS'superbikeplanet'
p1570
aS'MotoUSA'
p1571
aS'IndyTalk'
p1572
aS'joshherrin8'
p1573
aS'Eurosport'
p1574
aS'SPEED'
p1575
aS'fiatyamahateam'
p1576
aS'MotoRaceFeed'
p1577
aS'motoracereports'
p1578
aS'motorbikehub'
p1579
aS'MatMladin'
p1580
aS'js7'
p1581
aS'TravisPastrana'
p1582
aS'BenBostrom'
p1583
aS'NetProfitServ'
p1584
aS'ttrno'
p1585
aS'NatalieWHall'
p1586
aS'OldBikes'
p1587
aS'DucatiNet'
p1588
aS'DucatiOmaha'
p1589
aS'RickyCarmichael'
p1590
aS'RyanDungey'
p1591
aS'TwitGP'
p1592
aS'LeeannTweeden1'
p1593
aS'CycleNewsMag'
p1594
aS'NHaydenFanClub'
p1595
aS'motogpmart'
p1596
aS'MichaelLaverty'
p1597
aS'chrisvermeulen7'
p1598
aS'chazdavies'
p1599
aS'Twitvid'
p1600
aS'Ducati_Xerox'
p1601
aS'rogerhayden95'
p1602
aS'FIM_live'
p1603
aS'tobymoody'
p1604
aS'cookeba'
p1605
aS'texastornado5'
p1606
aS'BenSpies11'
p1607
aS'BrammoSays'
p1608
aS'AlonzoBodden'
p1609
aS'ianwheeler'
p1610
aS'GiantLoopMoto'
p1611
aS'AdvRiderDude'
p1612
aS'colleeneide'
p1613
aS'MMPDiscountTix'
p1614
aS'ohthebill'
p1615
aS'SantaFeTow'
p1616
aS'DaveMinella'
p1617
aS'Motourage'
p1618
aS'arsenalfankc'
p1619
aS'angelogiannosa'
p1620
aS'motogptimingapp'
p1621
aS'prsarahevans'
p1622
aS'BIKEgraphix'
p1623
aS'pauldangerkile'
p1624
aS'BikeEXIF'
p1625
aS'AndersonMatthew'
p1626
aS'fatmoto'
p1627
aS'DrBobParsons'
p1628
aS'listorious'
p1629
aS'amaroadracing'
p1630
aS'mcnsport'
p1631
aS'redbull'
p1632
asg326
g1050
sg328
g329
(S'\x07\xda\x0b\x08\x16\x05%\x05\xe9Y'
p1633
tp1634
Rp1635
sa(dp1636
g2
(lp1637
(dp1638
S'favorited'
p1639
I00
sS'truncated'
p1640
I00
sS'text'
p1641
S"Don't miss out on our networking events EXCLUSIVELY for #LinkedIn members! http://ow.ly/2xBZG"
p1642
sS'created_at'
p1643
S'Thu Sep 30 16:33:24 +0000 2010'
p1644
sS'retweeted'
p1645
I00
sS'coordinates'
p1646
NsS'in_reply_to_status_id'
p1647
NsS'place'
p1648
NsS'in_reply_to_screen_name'
p1649
NsS'retweet_count'
p1650
NsS'geo'
p1651
NsS'id'
p1652
I25995467162
sa(dp1653
S'favorited'
p1654
I00
sS'truncated'
p1655
I00
sS'text'
p1656
S'Want to connect with other #LinkedIn business people in Metro Atlanta? http://ow.ly/2xBXw'
p1657
sS'created_at'
p1658
S'Thu Sep 30 12:33:20 +0000 2010'
p1659
sS'retweeted'
p1660
I00
sS'coordinates'
p1661
NsS'in_reply_to_status_id'
p1662
NsS'place'
p1663
NsS'in_reply_to_screen_name'
p1664
NsS'retweet_count'
p1665
NsS'geo'
p1666
NsS'id'
p1667
I25974632116
sa(dp1668
S'favorited'
p1669
I00
sS'truncated'
p1670
I00
sS'text'
p1671
S'Is your company also on #LinkedIn?'
p1672
sS'created_at'
p1673
S'Wed Sep 29 20:33:21 +0000 2010'
p1674
sS'retweeted'
p1675
I00
sS'coordinates'
p1676
NsS'in_reply_to_status_id'
p1677
NsS'place'
p1678
NsS'in_reply_to_screen_name'
p1679
NsS'retweet_count'
p1680
NsS'geo'
p1681
NsS'id'
p1682
I25915013729
sa(dp1683
S'favorited'
p1684
I00
sS'truncated'
p1685
I00
sS'text'
p1686
S'We specialize in Leveraging #LinkedIn Connections! http://ow.ly/2xBEN'
p1687
sS'created_at'
p1688
S'Wed Sep 29 16:33:26 +0000 2010'
p1689
sS'retweeted'
p1690
I00
sS'coordinates'
p1691
NsS'in_reply_to_status_id'
p1692
NsS'place'
p1693
NsS'in_reply_to_screen_name'
p1694
NsS'retweet_count'
p1695
NsS'geo'
p1696
NsS'id'
p1697
I25898452096
sa(dp1698
S'favorited'
p1699
I00
sS'truncated'
p1700
I00
sS'text'
p1701
S'@LuxBroker Great to meet you too - Looking forward to it as well!'
p1702
sS'created_at'
p1703
S'Wed Sep 29 16:12:26 +0000 2010'
p1704
sS'retweeted'
p1705
I00
sS'coordinates'
p1706
NsS'in_reply_to_status_id'
p1707
I25813581918
sS'place'
p1708
NsS'in_reply_to_screen_name'
p1709
S'LuxBroker'
p1710
sS'retweet_count'
p1711
NsS'geo'
p1712
NsS'id'
p1713
I25896712034
sa(dp1714
S'favorited'
p1715
I00
sS'truncated'
p1716
I00
sS'text'
p1717
S"Here's the schedule for our monthly Metro Mixers :: http://ow.ly/2xBxx"
p1718
sS'created_at'
p1719
S'Wed Sep 29 12:33:22 +0000 2010'
p1720
sS'retweeted'
p1721
I00
sS'coordinates'
p1722
NsS'in_reply_to_status_id'
p1723
NsS'place'
p1724
NsS'in_reply_to_screen_name'
p1725
NsS'retweet_count'
p1726
NsS'geo'
p1727
NsS'id'
p1728
I25878367976
sa(dp1729
S'favorited'
p1730
I00
sS'truncated'
p1731
I00
sS'text'
p1732
S'Executives from all Fortune 500 companies are #LinkedIn members. Sign up today! &gt;&gt; http://ow.ly/2KtF2'
p1733
sS'created_at'
p1734
S'Tue Sep 28 20:33:25 +0000 2010'
p1735
sS'retweeted'
p1736
I00
sS'coordinates'
p1737
NsS'in_reply_to_status_id'
p1738
NsS'place'
p1739
NsS'in_reply_to_screen_name'
p1740
NsS'retweet_count'
p1741
NsS'geo'
p1742
NsS'id'
p1743
I25817727671
sa(dp1744
S'favorited'
p1745
I00
sS'truncated'
p1746
I00
sS'text'
p1747
S'We start each Metro Mixer with a 30-minute #Linkedin training session, followed by 2.5 hrs of power networking w/ Linkedin business leaders.'
p1748
sS'created_at'
p1749
S'Tue Sep 28 16:33:28 +0000 2010'
p1750
sS'retweeted'
p1751
I00
sS'coordinates'
p1752
NsS'in_reply_to_status_id'
p1753
NsS'place'
p1754
NsS'in_reply_to_screen_name'
p1755
NsS'retweet_count'
p1756
NsS'geo'
p1757
NsS'id'
p1758
I25800385611
sa(dp1759
S'favorited'
p1760
I00
sS'truncated'
p1761
I00
sS'text'
p1762
S'Did you know we provide #LinkedIn training, tips, and strategies at all our events? http://ow.ly/2xzHG'
p1763
sS'created_at'
p1764
S'Tue Sep 28 12:33:55 +0000 2010'
p1765
sS'retweeted'
p1766
I00
sS'coordinates'
p1767
NsS'in_reply_to_status_id'
p1768
NsS'place'
p1769
NsS'in_reply_to_screen_name'
p1770
NsS'retweet_count'
p1771
NsS'geo'
p1772
NsS'id'
p1773
I25779971659
sa(dp1774
S'favorited'
p1775
I00
sS'truncated'
p1776
I00
sS'text'
p1777
S"Have you joined our #LinkedIn group yet? It's easy! &gt;&gt; http://ow.ly/2xAO4"
p1778
sS'created_at'
p1779
S'Mon Sep 27 20:33:24 +0000 2010'
p1780
sS'retweeted'
p1781
I00
sS'coordinates'
p1782
NsS'in_reply_to_status_id'
p1783
NsS'place'
p1784
NsS'in_reply_to_screen_name'
p1785
NsS'retweet_count'
p1786
NsS'geo'
p1787
NsS'id'
p1788
I25718804884
sa(dp1789
S'favorited'
p1790
I00
sS'truncated'
p1791
I00
sS'text'
p1792
S'Did you know #LinkedIn has over 75 million members in over 200 countries?'
p1793
sS'created_at'
p1794
S'Mon Sep 27 16:33:29 +0000 2010'
p1795
sS'retweeted'
p1796
I00
sS'coordinates'
p1797
NsS'in_reply_to_status_id'
p1798
NsS'place'
p1799
NsS'in_reply_to_screen_name'
p1800
NsS'retweet_count'
p1801
NsS'geo'
p1802
NsS'id'
p1803
I25702035248
sa(dp1804
S'favorited'
p1805
I00
sS'truncated'
p1806
I00
sS'text'
p1807
S'Thank you! RT @Darnellclark: Shout outs to @MetroABN @VayuMedia @SouthernBarter & many other great folks. Successful networking events #MABN'
p1808
sS'created_at'
p1809
S'Mon Sep 27 15:50:16 +0000 2010'
p1810
sS'retweeted'
p1811
I00
sS'coordinates'
p1812
NsS'in_reply_to_status_id'
p1813
NsS'place'
p1814
NsS'in_reply_to_screen_name'
p1815
NsS'retweet_count'
p1816
NsS'geo'
p1817
NsS'id'
p1818
I25698454123
sa(dp1819
S'favorited'
p1820
I00
sS'truncated'
p1821
I00
sS'text'
p1822
S'Thanks! RT @LuxBroker Metro ABN Expo Was a Big Hit! Congrats 2 Dahlys & Janelle Hamilton @MetroABN & all the exhibitors & Participants!'
p1823
sS'created_at'
p1824
S'Mon Sep 27 15:48:56 +0000 2010'
p1825
sS'retweeted'
p1826
I00
sS'coordinates'
p1827
NsS'in_reply_to_status_id'
p1828
NsS'place'
p1829
NsS'in_reply_to_screen_name'
p1830
NsS'retweet_count'
p1831
NsS'geo'
p1832
NsS'id'
p1833
I25698340817
sa(dp1834
S'favorited'
p1835
I00
sS'truncated'
p1836
I00
sS'text'
p1837
S'Glad you enjoyed it! RT @turnermagic: Great day @ MABN Expo. Shout outs to @MetroABN @VayuMedia @SouthernBarter & so many other great folks.'
p1838
sS'created_at'
p1839
S'Mon Sep 27 01:53:48 +0000 2010'
p1840
sS'retweeted'
p1841
I00
sS'coordinates'
p1842
NsS'in_reply_to_status_id'
p1843
NsS'place'
p1844
NsS'in_reply_to_screen_name'
p1845
NsS'retweet_count'
p1846
NsS'geo'
p1847
NsS'id'
p1848
I25645430285
sa(dp1849
S'favorited'
p1850
I00
sS'truncated'
p1851
I00
sS'text'
p1852
S"Thanks to everyone for coming out to the #ABNexpo today! Who's making some good connections?"
p1853
sS'created_at'
p1854
S'Sat Sep 25 19:35:02 +0000 2010'
p1855
sS'retweeted'
p1856
I00
sS'coordinates'
p1857
NsS'in_reply_to_status_id'
p1858
NsS'place'
p1859
NsS'in_reply_to_screen_name'
p1860
NsS'retweet_count'
p1861
NsS'geo'
p1862
NsS'id'
p1863
I25525553138
sa(dp1864
S'favorited'
p1865
I00
sS'truncated'
p1866
I00
sS'text'
p1867
S'Special thanks to our SPONSORS! http://www.southernbarterclub.org http://yepser.com #ABNexpo'
p1868
sS'created_at'
p1869
S'Sat Sep 25 15:50:03 +0000 2010'
p1870
sS'retweeted'
p1871
I00
sS'coordinates'
p1872
NsS'in_reply_to_status_id'
p1873
NsS'place'
p1874
NsS'in_reply_to_screen_name'
p1875
NsS'retweet_count'
p1876
NsS'geo'
p1877
NsS'id'
p1878
I25509358331
sa(dp1879
S'favorited'
p1880
I00
sS'truncated'
p1881
I00
sS'text'
p1882
S'One lucky attendee today will win a "Bollywood" Bahamas cruise for 2, courtesy of Axar Holidays. #ABNexpo'
p1883
sS'created_at'
p1884
S'Sat Sep 25 14:15:01 +0000 2010'
p1885
sS'retweeted'
p1886
I00
sS'coordinates'
p1887
NsS'in_reply_to_status_id'
p1888
NsS'place'
p1889
NsS'in_reply_to_screen_name'
p1890
NsS'retweet_count'
p1891
NsS'geo'
p1892
NsS'id'
p1893
I25501325780
sa(dp1894
S'favorited'
p1895
I00
sS'truncated'
p1896
I00
sS'text'
p1897
S'Everything is set to go for our expo today!  LinkedIn Panel, Business Fashion Show, 15 Minutes of Fame, and more.  #ABNexpo'
p1898
sS'created_at'
p1899
S'Sat Sep 25 13:42:19 +0000 2010'
p1900
sS'retweeted'
p1901
I00
sS'coordinates'
p1902
NsS'in_reply_to_status_id'
p1903
NsS'place'
p1904
NsS'in_reply_to_screen_name'
p1905
NsS'retweet_count'
p1906
NsS'geo'
p1907
NsS'id'
p1908
I25498812819
sa(dp1909
S'favorited'
p1910
I00
sS'truncated'
p1911
I00
sS'text'
p1912
S'Gearing up to get our Expo kicked off this morning! #ABNexpo'
p1913
sS'created_at'
p1914
S'Sat Sep 25 12:25:02 +0000 2010'
p1915
sS'retweeted'
p1916
I00
sS'coordinates'
p1917
NsS'in_reply_to_status_id'
p1918
NsS'place'
p1919
NsS'in_reply_to_screen_name'
p1920
NsS'retweet_count'
p1921
NsS'geo'
p1922
NsS'id'
p1923
I25493644811
sa(dp1924
S'favorited'
p1925
I00
sS'truncated'
p1926
I00
sS'text'
p1927
S'#FF Fall Expo Sponsors: @Yepser @SouthernBarter'
p1928
sS'created_at'
p1929
S'Fri Sep 24 21:15:08 +0000 2010'
p1930
sS'retweeted'
p1931
I00
sS'coordinates'
p1932
NsS'in_reply_to_status_id'
p1933
NsS'place'
p1934
NsS'in_reply_to_screen_name'
p1935
NsS'retweet_count'
p1936
NsS'geo'
p1937
NsS'id'
p1938
I25439324489
sasg274
(lp1939
S'C_Racka'
p1940
aS'AlanaSanders'
p1941
aS'kelciechambers'
p1942
aS'ShedtheBitch'
p1943
aS'MsMelanie'
p1944
aS'Koskeeband'
p1945
aS'LYFTterry'
p1946
aS'AFTN'
p1947
aS'YurFavColour'
p1948
aS'wedplan'
p1949
aS'mrmoneey'
p1950
aS'PalloHolmes'
p1951
aS'JennEscalona'
p1952
aS'JMajorWay'
p1953
aS'starnesphoto'
p1954
aS'ImTheMan_Leo'
p1955
aS'KenE3C'
p1956
aS'1aaronwright'
p1957
aS'mikeg723'
p1958
aS'PDMMediaInfo'
p1959
aS'SportsTalkWithD'
p1960
aS'FTGeorgia'
p1961
aS'1906ape'
p1962
aS'savagespeaks'
p1963
aS'LBakerGP'
p1964
aS'TomSalataLaw'
p1965
aS'805Peachtree'
p1966
aS'melibennett'
p1967
aS'TodaysHomeLoans'
p1968
aS'stevenridenour'
p1969
aS'szwast'
p1970
aS'ERoseATL'
p1971
aS'schaumin_chanel'
p1972
aS'Smirnoff_There'
p1973
aS'Djonckheere'
p1974
aS'langleychiro'
p1975
aS'NMoPatriotism'
p1976
aS'latoyaparker'
p1977
aS'jamesacannon'
p1978
aS'Voiceblue'
p1979
aS'natt_k2000'
p1980
aS'ColderICE'
p1981
aS'BenTone724'
p1982
aS'packagingdiva'
p1983
aS'RoeberDesigns'
p1984
aS'Kreateyou'
p1985
aS'ALMWebDesigns'
p1986
aS'Cate4Fitness'
p1987
aS'DaYoungTruth'
p1988
aS'YOUR1MINUTE'
p1989
aS'smaxbrown'
p1990
aS'CTDGRAPHICMAN'
p1991
aS'jackwbruce'
p1992
aS'OFHLinda'
p1993
aS'jjjedchu'
p1994
aS'SteveDrews'
p1995
aS'kardoz'
p1996
aS'ThatGirlDalana'
p1997
aS'CaseyMcCann'
p1998
aS'StephanieCPA'
p1999
aS'CallMeCarlile'
p2000
aS'AJCCobb'
p2001
aS'moneyfollowsme'
p2002
aS'Celeb_Promoter'
p2003
aS'DoktaDivah'
p2004
aS'KesslerMarketng'
p2005
aS'Jenpirkle'
p2006
aS'RSimpsonATL'
p2007
aS'jaetchison'
p2008
aS'MySecretAtlanta'
p2009
aS'ChaffieCooper'
p2010
aS'_PinkBelle_'
p2011
aS'DWadeATL'
p2012
aS'ParisLuvLee'
p2013
aS'acoop3'
p2014
aS'jwgrier'
p2015
aS'tyraanneburton'
p2016
aS'MarGOGeller'
p2017
aS'MIKEYtheBRAND'
p2018
aS'chef_goad'
p2019
aS'citybizatlanta'
p2020
aS'dwright1906'
p2021
aS'TDavisShefer'
p2022
aS'Supermarketes'
p2023
aS'RedCarpetSecret'
p2024
aS'misszellner'
p2025
aS'uniquediamond7'
p2026
aS'SolaEnt'
p2027
aS'AWomansLifeExpo'
p2028
aS'MarkWLein'
p2029
aS'door2doordc'
p2030
aS'GregLuchak'
p2031
aS'myloveable'
p2032
aS'BigDaddyDee'
p2033
aS'MsWallST'
p2034
aS'garykarr'
p2035
aS'TheOuterCity88'
p2036
aS'JCinqo'
p2037
aS'bizcommunicator'
p2038
aS'jyi'
p2039
asg300
(lp2040
S'TheAfter5Edge'
p2041
aS'TWITCH_06'
p2042
aS'ThatGuy15'
p2043
aS'iamdanielmoore'
p2044
aS'akaCHAMP_CLOUD9'
p2045
aS'jonathansaar'
p2046
aS'matttroiani'
p2047
aS'DarlaDixon'
p2048
aS'AlanaSanders'
p2049
aS'Anf2140'
p2050
aS'kelciechambers'
p2051
aS'ADFisher'
p2052
aS'barbershopbabe'
p2053
aS'KeeRuck1212'
p2054
aS'CleanFreeFun'
p2055
aS'darealtoni'
p2056
aS'heyarnold_216'
p2057
aS'MykeBTheLabel'
p2058
aS'youngpgbaby'
p2059
aS'AtlantaJJ'
p2060
aS'awal94'
p2061
aS'MsMelanie'
p2062
aS'MzExec'
p2063
aS'spicycajun1'
p2064
aS'FeeDaRealist'
p2065
aS'suavae'
p2066
aS'blaqbuttafli77'
p2067
aS'Wmena66'
p2068
aS'nicolejmj'
p2069
aS'caliibound'
p2070
aS'MrShift4'
p2071
aS'LYFTterry'
p2072
aS'YurFavColour'
p2073
aS'liquidc2'
p2074
aS'BriMillionaire'
p2075
aS'iamBeckyShea'
p2076
aS'BrandSHOEbian'
p2077
aS'AFreaknSmartAss'
p2078
aS'TAYYYYmarie'
p2079
aS'msjaiinc'
p2080
aS'xostaciexo'
p2081
aS'tae_queezWP'
p2082
aS'Shoeyyyyyyy'
p2083
aS'MuRdA2k'
p2084
aS'iBeauteous'
p2085
aS'Diamondcruz3x'
p2086
aS'wedplan'
p2087
aS'starnesphoto'
p2088
aS'THEnastyboy'
p2089
aS'KallMeKranium'
p2090
aS'atlantastaging'
p2091
aS'dreadchik'
p2092
aS'1aaronwright'
p2093
aS'BLKCHiiiNaDoLL'
p2094
aS'rsringeri'
p2095
aS'humbleasshole'
p2096
aS'FiliPiNABARBiE'
p2097
aS'TightZone6'
p2098
aS'SoClassyRT'
p2099
aS'WBaby23'
p2100
aS'MissMarNai'
p2101
aS'sheisAimee'
p2102
aS'ThatsQueen2U'
p2103
aS'imgreen1'
p2104
aS'jameseustice'
p2105
aS'Miss_EricaBabi'
p2106
aS'KingDice_D'
p2107
aS'mikeg723'
p2108
aS'RuthMalhotra'
p2109
aS'J_B_FRESH'
p2110
aS'ChrissyDix24'
p2111
aS'jstnvme'
p2112
aS'fallen4fallon'
p2113
aS'Legendaryurs'
p2114
aS'DRealHolliwood'
p2115
aS'justinjohnson27'
p2116
aS'VictorAntonio'
p2117
aS'CyphaStayHi'
p2118
aS'I_am_Danie'
p2119
aS'MzBless4Lyfe86'
p2120
aS'ChickRiTS'
p2121
aS'SeanGQTaylor'
p2122
aS'Boss23'
p2123
aS'aBadMuthafucka'
p2124
aS'MellieMell_Hell'
p2125
aS'KenE3C'
p2126
aS'BrynnUniq'
p2127
aS'ubudgetdesign'
p2128
aS'djcalibud'
p2129
aS'jetswervekings'
p2130
aS'Kevin_STaRR'
p2131
aS'MsBeck81'
p2132
aS'lisalisa_yubugn'
p2133
aS'magnum_pg'
p2134
aS'DaaamnCherry'
p2135
aS'guitarguru_1231'
p2136
aS'PalloHolmes'
p2137
aS'ManofValor'
p2138
aS'sugarcavity'
p2139
aS'Zeezer'
p2140
asg326
g1090
sg328
g329
(S'\x07\xda\x0b\x08\x16\x05.\t\xb04'
p2141
tp2142
Rp2143
sa(dp2144
g2
(lp2145
(dp2146
S'favorited'
p2147
I00
sS'truncated'
p2148
I00
sS'text'
p2149
S"Migraine AND it feels like 12pm...I'm so calling it a day!"
p2150
sS'created_at'
p2151
S'Tue Nov 09 02:00:17 +0000 2010'
p2152
sS'retweeted'
p2153
I00
sS'coordinates'
p2154
NsS'in_reply_to_status_id'
p2155
NsS'place'
p2156
NsS'in_reply_to_screen_name'
p2157
NsS'retweet_count'
p2158
NsS'geo'
p2159
NsS'id'
p2160
I1816311894114338
sa(dp2161
S'favorited'
p2162
I00
sS'truncated'
p2163
I00
sS'text'
p2164
S"Yes--It was GREAT!! RT @peas4luck: @melibennett can't wait! Did u see the video?"
p2165
sS'created_at'
p2166
S'Mon Nov 08 00:02:35 +0000 2010'
p2167
sS'retweeted'
p2168
I00
sS'coordinates'
p2169
NsS'in_reply_to_status_id'
p2170
NsS'place'
p2171
NsS'in_reply_to_screen_name'
p2172
NsS'retweet_count'
p2173
NsS'geo'
p2174
NsS'id'
p2175
I1424307355910144
sa(dp2176
S'favorited'
p2177
I00
sS'truncated'
p2178
I00
sS'text'
p2179
S"@peas4luck: Hope Cali was fun! I'll be working on lots of stuff tom and Tues! :)"
p2180
sS'created_at'
p2181
S'Sun Nov 07 22:45:00 +0000 2010'
p2182
sS'retweeted'
p2183
I00
sS'coordinates'
p2184
NsS'in_reply_to_status_id'
p2185
NsS'place'
p2186
NsS'in_reply_to_screen_name'
p2187
S'peas4luck'
p2188
sS'retweet_count'
p2189
NsS'geo'
p2190
NsS'id'
p2191
I1404781532815360
sa(dp2192
S'favorited'
p2193
I00
sS'truncated'
p2194
I00
sS'text'
p2195
S'Have lots of fun! RT @MandMProducts: Super excited to be part of the gift lounge for the 2010 Soul Train Music Awards this week!'
p2196
sS'created_at'
p2197
S'Sun Nov 07 22:22:19 +0000 2010'
p2198
sS'retweeted'
p2199
I00
sS'coordinates'
p2200
NsS'in_reply_to_status_id'
p2201
NsS'place'
p2202
NsS'in_reply_to_screen_name'
p2203
NsS'retweet_count'
p2204
NsS'geo'
p2205
NsS'id'
p2206
I1399073525469184
sa(dp2207
S'favorited'
p2208
I00
sS'truncated'
p2209
I00
sS'text'
p2210
S'I got business cards! Read my new post-- A bit of "business" class: http://t.co/rteclJj'
p2211
sS'created_at'
p2212
S'Thu Nov 04 21:53:19 +0000 2010'
p2213
sS'retweeted'
p2214
I00
sS'coordinates'
p2215
NsS'in_reply_to_status_id'
p2216
NsS'place'
p2217
NsS'in_reply_to_screen_name'
p2218
NsS'retweet_count'
p2219
NsS'geo'
p2220
NsS'id'
p2221
I304609226657792
sa(dp2222
S'favorited'
p2223
I00
sS'truncated'
p2224
I00
sS'text'
p2225
S'Love this site: http://votesmart.org/voteeasy/#  Remember to vote tomorrow!'
p2226
sS'created_at'
p2227
S'Mon Nov 01 15:36:20 +0000 2010'
p2228
sS'retweeted'
p2229
I00
sS'coordinates'
p2230
NsS'in_reply_to_status_id'
p2231
NsS'place'
p2232
NsS'in_reply_to_screen_name'
p2233
NsS'retweet_count'
p2234
NsS'geo'
p2235
NsS'id'
p2236
I29382821380
sa(dp2237
S'favorited'
p2238
I00
sS'truncated'
p2239
I00
sS'text'
p2240
S"Totally! And can't wait for the meeting! @LauraScholz"
p2241
sS'created_at'
p2242
S'Sat Oct 30 01:49:42 +0000 2010'
p2243
sS'retweeted'
p2244
I00
sS'coordinates'
p2245
NsS'in_reply_to_status_id'
p2246
NsS'place'
p2247
NsS'in_reply_to_screen_name'
p2248
NsS'retweet_count'
p2249
NsS'geo'
p2250
NsS'id'
p2251
I29143160152
sa(dp2252
S'favorited'
p2253
I00
sS'truncated'
p2254
I00
sS'text'
p2255
S'Totally meant "got ya" or something...lol @LauraScholz'
p2256
sS'created_at'
p2257
S'Sat Oct 30 01:27:46 +0000 2010'
p2258
sS'retweeted'
p2259
I00
sS'coordinates'
p2260
NsS'in_reply_to_status_id'
p2261
NsS'place'
p2262
NsS'in_reply_to_screen_name'
p2263
NsS'retweet_count'
p2264
NsS'geo'
p2265
NsS'id'
p2266
I29141456116
sa(dp2267
S'favorited'
p2268
I00
sS'truncated'
p2269
I00
sS'text'
p2270
S'Got yeah! lol @LauraScholz'
p2271
sS'created_at'
p2272
S'Sat Oct 30 01:22:46 +0000 2010'
p2273
sS'retweeted'
p2274
I00
sS'coordinates'
p2275
NsS'in_reply_to_status_id'
p2276
NsS'place'
p2277
NsS'in_reply_to_screen_name'
p2278
NsS'retweet_count'
p2279
NsS'geo'
p2280
NsS'id'
p2281
I29141068749
sa(dp2282
S'favorited'
p2283
I00
sS'truncated'
p2284
I00
sS'text'
p2285
S'@BSilberman I just saw Harvest! @LauraScholz was right...You are the organizational queen! Awesomeness!'
p2286
sS'created_at'
p2287
S'Sat Oct 30 01:03:13 +0000 2010'
p2288
sS'retweeted'
p2289
I00
sS'coordinates'
p2290
NsS'in_reply_to_status_id'
p2291
NsS'place'
p2292
NsS'in_reply_to_screen_name'
p2293
S'BSilberman'
p2294
sS'retweet_count'
p2295
NsS'geo'
p2296
NsS'id'
p2297
I29139551020
sa(dp2298
S'favorited'
p2299
I00
sS'truncated'
p2300
I00
sS'text'
p2301
S'BTW what does #prnc mean? @LauraScholz'
p2302
sS'created_at'
p2303
S'Sat Oct 30 00:58:44 +0000 2010'
p2304
sS'retweeted'
p2305
I00
sS'coordinates'
p2306
NsS'in_reply_to_status_id'
p2307
NsS'place'
p2308
NsS'in_reply_to_screen_name'
p2309
NsS'retweet_count'
p2310
NsS'geo'
p2311
NsS'id'
p2312
I29139197839
sa(dp2313
S'favorited'
p2314
I00
sS'truncated'
p2315
I00
sS'text'
p2316
S'Thanks! More to come this weekend! Yay! RT @LauraScholz: I think AC @melibennett is earning her #prnc credentials tonight. Yay team!'
p2317
sS'created_at'
p2318
S'Sat Oct 30 00:57:32 +0000 2010'
p2319
sS'retweeted'
p2320
I00
sS'coordinates'
p2321
NsS'in_reply_to_status_id'
p2322
NsS'place'
p2323
NsS'in_reply_to_screen_name'
p2324
NsS'retweet_count'
p2325
NsS'geo'
p2326
NsS'id'
p2327
I29139106146
sa(dp2328
S'favorited'
p2329
I00
sS'truncated'
p2330
I00
sS'text'
p2331
S'Thanks so much!!!! @LauraScholz'
p2332
sS'created_at'
p2333
S'Thu Oct 28 00:12:08 +0000 2010'
p2334
sS'retweeted'
p2335
I00
sS'coordinates'
p2336
NsS'in_reply_to_status_id'
p2337
NsS'place'
p2338
NsS'in_reply_to_screen_name'
p2339
NsS'retweet_count'
p2340
NsS'geo'
p2341
NsS'id'
p2342
I28939069089
sa(dp2343
S'favorited'
p2344
I00
sS'truncated'
p2345
I00
sS'text'
p2346
S'Getting organized...@LauraScholz is keeping me busy. But I love it!! :)'
p2347
sS'created_at'
p2348
S'Wed Oct 27 23:48:14 +0000 2010'
p2349
sS'retweeted'
p2350
I00
sS'coordinates'
p2351
NsS'in_reply_to_status_id'
p2352
NsS'place'
p2353
NsS'in_reply_to_screen_name'
p2354
NsS'retweet_count'
p2355
NsS'geo'
p2356
NsS'id'
p2357
I28937067763
sa(dp2358
S'favorited'
p2359
I00
sS'truncated'
p2360
I00
sS'text'
p2361
S"Thanks for the yummy food & good chat! RT @peas4luck: Eatin some #BlackeyedPeas w @melibennett at Mary Mac's"
p2362
sS'created_at'
p2363
S'Wed Oct 27 23:37:09 +0000 2010'
p2364
sS'retweeted'
p2365
I00
sS'coordinates'
p2366
NsS'in_reply_to_status_id'
p2367
NsS'place'
p2368
NsS'in_reply_to_screen_name'
p2369
NsS'retweet_count'
p2370
NsS'geo'
p2371
NsS'id'
p2372
I28936148199
sa(dp2373
S'favorited'
p2374
I00
sS'truncated'
p2375
I00
sS'text'
p2376
S'@BrandiNell Yay! Rocky Horror! I miss you too!!'
p2377
sS'created_at'
p2378
S'Tue Oct 26 23:49:10 +0000 2010'
p2379
sS'retweeted'
p2380
I00
sS'coordinates'
p2381
NsS'in_reply_to_status_id'
p2382
NsS'place'
p2383
NsS'in_reply_to_screen_name'
p2384
S'BrandiNell'
p2385
sS'retweet_count'
p2386
NsS'geo'
p2387
NsS'id'
p2388
I28838124945
sa(dp2389
S'favorited'
p2390
I00
sS'truncated'
p2391
I00
sS'text'
p2392
S'So excited about #Glee tonight!!!'
p2393
sS'created_at'
p2394
S'Tue Oct 26 23:42:14 +0000 2010'
p2395
sS'retweeted'
p2396
I00
sS'coordinates'
p2397
NsS'in_reply_to_status_id'
p2398
NsS'place'
p2399
NsS'in_reply_to_screen_name'
p2400
NsS'retweet_count'
p2401
NsS'geo'
p2402
NsS'id'
p2403
I28837506805
sa(dp2404
S'favorited'
p2405
I00
sS'truncated'
p2406
I00
sS'text'
p2407
S"@lesleyfenton: Awww! Thanks! And I love Front Porch Sittin'! It's so adorable! Glad you and Kyle are loving married life!"
p2408
sS'created_at'
p2409
S'Tue Oct 26 21:38:02 +0000 2010'
p2410
sS'retweeted'
p2411
I00
sS'coordinates'
p2412
NsS'in_reply_to_status_id'
p2413
NsS'place'
p2414
NsS'in_reply_to_screen_name'
p2415
S'lesleyfenton'
p2416
sS'retweet_count'
p2417
NsS'geo'
p2418
NsS'id'
p2419
I28827598376
sa(dp2420
S'favorited'
p2421
I00
sS'truncated'
p2422
I00
sS'text'
p2423
S";) That's okay!!! RT @365Atlanta: @melibennett I got your email - not ignoring you just been nuts! Will def email you back tomorrow!"
p2424
sS'created_at'
p2425
S'Tue Oct 26 01:49:24 +0000 2010'
p2426
sS'retweeted'
p2427
I00
sS'coordinates'
p2428
NsS'in_reply_to_status_id'
p2429
NsS'place'
p2430
NsS'in_reply_to_screen_name'
p2431
NsS'retweet_count'
p2432
NsS'geo'
p2433
NsS'id'
p2434
I28747758744
sa(dp2435
S'favorited'
p2436
I00
sS'truncated'
p2437
I00
sS'text'
p2438
S'My new blog post: "Driving in a box"-- http://t.co/FG9cSN3'
p2439
sS'created_at'
p2440
S'Tue Oct 26 01:40:12 +0000 2010'
p2441
sS'retweeted'
p2442
I00
sS'coordinates'
p2443
NsS'in_reply_to_status_id'
p2444
NsS'place'
p2445
NsS'in_reply_to_screen_name'
p2446
NsS'retweet_count'
p2447
NsS'geo'
p2448
NsS'id'
p2449
I28746967775
sasg274
(lp2450
S'AmFamBrad'
p2451
aS'cory_at_Thomasv'
p2452
aS'JessicaClarkZWB'
p2453
aS'linkyjoexx'
p2454
aS'KontraCreative'
p2455
aS'MetroABN'
p2456
aS'EONpr'
p2457
aS'MilanLjubincic'
p2458
aS'parentingpundit'
p2459
aS'cfathorntonrd'
p2460
aS'abigailhood'
p2461
aS'SuperDU'
p2462
aS'marisasharpe'
p2463
aS'Jess_HR'
p2464
aS'maggiehampl'
p2465
aS'tobeymaguire'
p2466
aS'amazingdayspa'
p2467
aS'thebeaubeau'
p2468
aS'MandMProducts'
p2469
aS'TarynP'
p2470
aS'sestegall'
p2471
aS'CSJournalism'
p2472
aS'TheLocalDash'
p2473
aS'_I_SAM_'
p2474
aS'MarkLGeiger'
p2475
aS'kendellmiller'
p2476
aS'AbbeyHuf'
p2477
aS'freedomworship'
p2478
aS'KincaidBraces'
p2479
aS'ATLHistCenter'
p2480
aS'hazdinerofacilm'
p2481
aS'Atlantaisstupid'
p2482
aS'CSPhotographers'
p2483
aS'VRTagency'
p2484
aS'PRMillennial'
p2485
aS'PRprofile'
p2486
aS'lowellsdad'
p2487
aS'kellyhaywood'
p2488
aS'Littlewineshopp'
p2489
aS'FowlerFarms'
p2490
aS'ajcparenting'
p2491
aS'FayetteFP'
p2492
aS'GAFrontPage'
p2493
aS'ClassicHairSpa'
p2494
aS'TowneLaker'
p2495
aS'GenerousHelping'
p2496
aS'klchristof'
p2497
aS'ABarATLAirport'
p2498
aS'KellyeCrane'
p2499
aS'MShahab'
p2500
aS'cloudspark'
p2501
aS'gabyg227'
p2502
aS'PartyInRadio'
p2503
aS'AmareSinh'
p2504
aS'devinz'
p2505
aS'cohnwolfe'
p2506
aS'espressohigh'
p2507
aS'KayMccaff'
p2508
aS'MonicaWB'
p2509
aS'rdfrench'
p2510
aS'NewGradLife'
p2511
aS'DinnerPartyP'
p2512
aS'lifeislemonade'
p2513
aS'peas4luck'
p2514
aS'365Atlanta'
p2515
aS'AJCCherokee'
p2516
aS'microsofthohm'
p2517
aS'everyday_deals'
p2518
aS'mitchgoddard'
p2519
aS'WorldofCocaCola'
p2520
aS'latoyatv'
p2521
aS'jordanstover'
p2522
aS'tressalynne'
p2523
aS'abrill'
p2524
aS'SweetSambaSpa'
p2525
aS'wespowellfilms'
p2526
aS'GHTXinterns'
p2527
aS'nsckennesaw'
p2528
aS'MySkinConcierge'
p2529
aS'SherryAtEncore'
p2530
aS'TrevelinoKeller'
p2531
aS'PageantAtlanta'
p2532
aS'CHamilton_Assoc'
p2533
aS'BloggingAtlanta'
p2534
aS'JoshfromMaine'
p2535
aS'walldecorhome'
p2536
aS'HoneyBeeInvites'
p2537
aS'AJCFalcons'
p2538
aS'StopCrimeATL'
p2539
aS'tzamy'
p2540
aS'officecontest'
p2541
aS'CAREEREALISM'
p2542
aS'HannahKeating'
p2543
aS'AllieASmith'
p2544
aS'RickM'
p2545
aS'TalentZoo'
p2546
aS'EverdryRoofing'
p2547
aS'tonysblogtips'
p2548
aS'InternshipKing'
p2549
aS'TheWPMaven'
p2550
asg300
(lp2551
S'MetroABN'
p2552
aS'Renown'
p2553
aS'ATLCruzers'
p2554
aS'npquarterly'
p2555
aS'parentingpundit'
p2556
aS'JEZEBELMagazine'
p2557
aS'AtlantaMagazine'
p2558
aS'arketi'
p2559
aS'marisasharpe'
p2560
aS'Jess_HR'
p2561
aS'maggiehampl'
p2562
aS'amazingdayspa'
p2563
aS'MandMProducts'
p2564
aS'c21pr'
p2565
aS'souperJenny'
p2566
aS'lauramcgarey'
p2567
aS'AnnTaylorStyle'
p2568
aS'100andSouth'
p2569
aS'LOFT'
p2570
aS'MySkinConcierge'
p2571
aS'thebeaubeau'
p2572
aS'sestegall'
p2573
aS'TarynP'
p2574
aS'Mikinzie'
p2575
aS'TheLocalDash'
p2576
aS'MarkLGeiger'
p2577
aS'MauraNeill'
p2578
aS'VRTagency'
p2579
aS'PRprofile'
p2580
aS'noaheverett'
p2581
aS'TwitPic'
p2582
aS'MacKidSmyrna'
p2583
aS'MichelleSisco'
p2584
aS'porter_novelli'
p2585
aS'porternovelli'
p2586
aS'kellyhaywood'
p2587
aS'Littlewineshopp'
p2588
aS'sassyTinATL'
p2589
aS'prtini'
p2590
aS'FayetteFP'
p2591
aS'Lindsay_Blogs'
p2592
aS'GAFrontPage'
p2593
aS'janellenobles'
p2594
aS'kari_jordan'
p2595
aS'socialgirlmedia'
p2596
aS'CUREchildcancer'
p2597
aS'TowneLaker'
p2598
aS'GenerousHelping'
p2599
aS'klchristof'
p2600
aS'AbbeyHuf'
p2601
aS'CalahT'
p2602
aS'cloudspark'
p2603
aS'gabyg227'
p2604
aS'espressohigh'
p2605
aS'icemilkaprons'
p2606
aS'KayMccaff'
p2607
aS'MonicaWB'
p2608
aS'rdfrench'
p2609
aS'PRMillennial'
p2610
aS'hollisgillespie'
p2611
aS'PoshTotJen'
p2612
aS'lifeislemonade'
p2613
aS'DinnerPartyP'
p2614
aS'peas4luck'
p2615
aS'AJCCherokee'
p2616
aS'365Atlanta'
p2617
aS'HisHandsChurch'
p2618
aS'mitchgoddard'
p2619
aS'latoyatv'
p2620
aS'TRIOmedia'
p2621
aS'PSAHealthcare'
p2622
aS'jordanstover'
p2623
aS'TweetDeck'
p2624
aS'tressalynne'
p2625
aS'graciebs'
p2626
aS'alisonnewtonb'
p2627
aS'brokesocialite'
p2628
aS'abrill'
p2629
aS'SweetSambaSpa'
p2630
aS'toryjohnson'
p2631
aS'louiseroe'
p2632
aS'nsckennesaw'
p2633
aS'SherryAtEncore'
p2634
aS'BloggingAtlanta'
p2635
aS'LizaCardona'
p2636
aS'JoshfromMaine'
p2637
aS'tzamy'
p2638
aS'wmagency'
p2639
aS'AtlantaPR'
p2640
aS'FlammerPR'
p2641
aS'HBIpr'
p2642
aS'MoceriMgmt'
p2643
aS'KleberandAssoc'
p2644
aS'cohnwolfe'
p2645
aS'GolinHarris'
p2646
aS'Fleishman'
p2647
aS'ogilvypr'
p2648
aS'CAREEREALISM'
p2649
aS'NewGradLife'
p2650
aS'RickM'
p2651
asg326
g1967
sg328
g329
(S'\x07\xda\x0b\x08\x16\x06\x00\x07\x1ft'
p2652
tp2653
Rp2654
sa(dp2655
g2
(lp2656
(dp2657
S'favorited'
p2658
I00
sS'truncated'
p2659
I00
sS'text'
p2660
S'Well im calling it a night.. Have to be at the Infiniti dealership at 7 to get my bby serviced :)'
p2661
sS'created_at'
p2662
S'Tue Nov 09 03:09:29 +0000 2010'
p2663
sS'retweeted'
p2664
I00
sS'coordinates'
p2665
NsS'in_reply_to_status_id'
p2666
NsS'place'
p2667
NsS'in_reply_to_screen_name'
p2668
NsS'retweet_count'
p2669
NsS'geo'
p2670
NsS'id'
p2671
I1833726484942848
sa(dp2672
S'favorited'
p2673
I00
sS'truncated'
p2674
I00
sS'text'
p2675
S'Its toooo cold... Brrrrr'
p2676
sS'created_at'
p2677
S'Tue Nov 09 03:05:38 +0000 2010'
p2678
sS'retweeted'
p2679
I00
sS'coordinates'
p2680
NsS'in_reply_to_status_id'
p2681
NsS'place'
p2682
NsS'in_reply_to_screen_name'
p2683
NsS'retweet_count'
p2684
NsS'geo'
p2685
NsS'id'
p2686
I1832759190364160
sa(dp2687
S'favorited'
p2688
I00
sS'truncated'
p2689
I00
sS'text'
p2690
S'New day new beginning....'
p2691
sS'created_at'
p2692
S'Tue Nov 09 03:05:22 +0000 2010'
p2693
sS'retweeted'
p2694
I00
sS'coordinates'
p2695
NsS'in_reply_to_status_id'
p2696
NsS'place'
p2697
NsS'in_reply_to_screen_name'
p2698
NsS'retweet_count'
p2699
NsS'geo'
p2700
NsS'id'
p2701
I1832693612421120
sa(dp2702
S'favorited'
p2703
I00
sS'truncated'
p2704
I00
sS'text'
p2705
S'New day new beginning....'
p2706
sS'created_at'
p2707
S'Mon Nov 08 12:17:47 +0000 2010'
p2708
sS'retweeted'
p2709
I00
sS'coordinates'
p2710
NsS'in_reply_to_status_id'
p2711
NsS'place'
p2712
NsS'in_reply_to_screen_name'
p2713
NsS'retweet_count'
p2714
NsS'geo'
p2715
NsS'id'
p2716
I1609324178706432
sa(dp2717
S'favorited'
p2718
I00
sS'truncated'
p2719
I00
sS'text'
p2720
S"@JCannonMusic yup.! I'm bout to get me a glass of moscato in cuddle in bed watching flicks lol"
p2721
sS'created_at'
p2722
S'Sun Nov 07 23:37:17 +0000 2010'
p2723
sS'retweeted'
p2724
I00
sS'coordinates'
p2725
NsS'in_reply_to_status_id'
p2726
I1417140569645056
sS'place'
p2727
NsS'in_reply_to_screen_name'
p2728
S'JCannonMusic'
p2729
sS'retweet_count'
p2730
NsS'geo'
p2731
NsS'id'
p2732
I1417937151860736
sa(dp2733
S'favorited'
p2734
I00
sS'truncated'
p2735
I00
sS'text'
p2736
S"I would hate working in a retail store... That's y I'm thankful or my job :)"
p2737
sS'created_at'
p2738
S'Sun Nov 07 23:36:28 +0000 2010'
p2739
sS'retweeted'
p2740
I00
sS'coordinates'
p2741
NsS'in_reply_to_status_id'
p2742
NsS'place'
p2743
NsS'in_reply_to_screen_name'
p2744
NsS'retweet_count'
p2745
NsS'geo'
p2746
NsS'id'
p2747
I1417730783711232
sa(dp2748
S'favorited'
p2749
I00
sS'truncated'
p2750
I00
sS'text'
p2751
S"Man I didn't even feel this weekend... So not ready to go to work tmrw..."
p2752
sS'created_at'
p2753
S'Sun Nov 07 23:35:36 +0000 2010'
p2754
sS'retweeted'
p2755
I00
sS'coordinates'
p2756
NsS'in_reply_to_status_id'
p2757
NsS'place'
p2758
NsS'in_reply_to_screen_name'
p2759
NsS'retweet_count'
p2760
NsS'geo'
p2761
NsS'id'
p2762
I1417515183902721
sa(dp2763
S'favorited'
p2764
I00
sS'truncated'
p2765
I00
sS'text'
p2766
S"Fuck it's freaking cold!"
p2767
sS'created_at'
p2768
S'Sun Nov 07 23:33:39 +0000 2010'
p2769
sS'retweeted'
p2770
I00
sS'coordinates'
p2771
NsS'in_reply_to_status_id'
p2772
NsS'place'
p2773
NsS'in_reply_to_screen_name'
p2774
NsS'retweet_count'
p2775
NsS'geo'
p2776
NsS'id'
p2777
I1417022164439040
sa(dp2778
S'favorited'
p2779
I00
sS'truncated'
p2780
I00
sS'text'
p2781
S'Woke up deleting ppl idk on FB....'
p2782
sS'created_at'
p2783
S'Sun Nov 07 15:24:40 +0000 2010'
p2784
sS'retweeted'
p2785
I00
sS'coordinates'
p2786
NsS'in_reply_to_status_id'
p2787
NsS'place'
p2788
NsS'in_reply_to_screen_name'
p2789
NsS'retweet_count'
p2790
NsS'geo'
p2791
NsS'id'
p2792
I1293967056437248
sa(dp2793
S'favorited'
p2794
I00
sS'truncated'
p2795
I00
sS'text'
p2796
S'Great day to be alive!'
p2797
sS'created_at'
p2798
S'Sun Nov 07 15:24:23 +0000 2010'
p2799
sS'retweeted'
p2800
I00
sS'coordinates'
p2801
NsS'in_reply_to_status_id'
p2802
NsS'place'
p2803
NsS'in_reply_to_screen_name'
p2804
NsS'retweet_count'
p2805
NsS'geo'
p2806
NsS'id'
p2807
I1293895027654657
sa(dp2808
S'favorited'
p2809
I00
sS'truncated'
p2810
I00
sS'text'
p2811
S'Damnnn in the mood for some Bobby Womack lol'
p2812
sS'created_at'
p2813
S'Sun Nov 07 05:30:03 +0000 2010'
p2814
sS'retweeted'
p2815
I00
sS'coordinates'
p2816
NsS'in_reply_to_status_id'
p2817
NsS'place'
p2818
NsS'in_reply_to_screen_name'
p2819
NsS'retweet_count'
p2820
NsS'geo'
p2821
NsS'id'
p2822
I1144328105758721
sa(dp2823
S'favorited'
p2824
I00
sS'truncated'
p2825
I00
sS'text'
p2826
S'#followingback &gt;&gt; @SMC_iCE &lt;&lt;'
p2827
sS'created_at'
p2828
S'Sun Nov 07 05:27:42 +0000 2010'
p2829
sS'retweeted'
p2830
I00
sS'coordinates'
p2831
NsS'in_reply_to_status_id'
p2832
NsS'place'
p2833
NsS'in_reply_to_screen_name'
p2834
NsS'retweet_count'
p2835
NsS'geo'
p2836
NsS'id'
p2837
I1143737522593792
sa(dp2838
S'favorited'
p2839
I00
sS'truncated'
p2840
I00
sS'text'
p2841
V\u200e" its impossible, " said pride. \u000a" its risky, " said experience. \u000a" its pointless, " said reason.\u000a" give it a try, " whispered the heart.
p2842
sS'created_at'
p2843
S'Sun Nov 07 05:25:06 +0000 2010'
p2844
sS'retweeted'
p2845
I00
sS'coordinates'
p2846
NsS'in_reply_to_status_id'
p2847
NsS'place'
p2848
NsS'in_reply_to_screen_name'
p2849
NsS'retweet_count'
p2850
NsS'geo'
p2851
NsS'id'
p2852
I1143083383132160
sa(dp2853
S'favorited'
p2854
I00
sS'truncated'
p2855
I00
sS'text'
p2856
V\u201c@ImRenoGood: I don't have ex's i have y's. WHY the hell did i do that ?\u201d
p2857
sS'created_at'
p2858
S'Sun Nov 07 05:09:15 +0000 2010'
p2859
sS'retweeted'
p2860
I00
sS'coordinates'
p2861
NsS'in_reply_to_status_id'
p2862
NsS'place'
p2863
NsS'in_reply_to_screen_name'
p2864
NsS'retweet_count'
p2865
NsS'geo'
p2866
NsS'id'
p2867
I1139091651436544
sa(dp2868
S'favorited'
p2869
I00
sS'truncated'
p2870
I00
sS'text'
p2871
S'Yes!!!!!! we get to party and sleep an extra hour ;)'
p2872
sS'created_at'
p2873
S'Sun Nov 07 05:09:02 +0000 2010'
p2874
sS'retweeted'
p2875
I00
sS'coordinates'
p2876
NsS'in_reply_to_status_id'
p2877
NsS'place'
p2878
NsS'in_reply_to_screen_name'
p2879
NsS'retweet_count'
p2880
NsS'geo'
p2881
NsS'id'
p2882
I1139036085293057
sa(dp2883
S'favorited'
p2884
I00
sS'truncated'
p2885
I00
sS'text'
p2886
S'Whoot whoot woke up feeling in a great ass mood!'
p2887
sS'created_at'
p2888
S'Sat Nov 06 12:53:57 +0000 2010'
p2889
sS'retweeted'
p2890
I00
sS'coordinates'
p2891
NsS'in_reply_to_status_id'
p2892
NsS'place'
p2893
NsS'in_reply_to_screen_name'
p2894
NsS'retweet_count'
p2895
NsS'geo'
p2896
NsS'id'
p2897
I893651207061504
sa(dp2898
S'favorited'
p2899
I00
sS'truncated'
p2900
I00
sS'text'
p2901
S'Loving this weather &lt;3'
p2902
sS'created_at'
p2903
S'Sat Nov 06 03:18:08 +0000 2010'
p2904
sS'retweeted'
p2905
I00
sS'coordinates'
p2906
NsS'in_reply_to_status_id'
p2907
NsS'place'
p2908
NsS'in_reply_to_screen_name'
p2909
NsS'retweet_count'
p2910
NsS'geo'
p2911
NsS'id'
p2912
I748741128622080
sa(dp2913
S'favorited'
p2914
I00
sS'truncated'
p2915
I00
sS'text'
p2916
S'Do u really need to put half ur coochie as ur default pic on here? Thats just filthy! #justsaying'
p2917
sS'created_at'
p2918
S'Sat Nov 06 03:14:09 +0000 2010'
p2919
sS'retweeted'
p2920
I00
sS'coordinates'
p2921
NsS'in_reply_to_status_id'
p2922
NsS'place'
p2923
NsS'in_reply_to_screen_name'
p2924
NsS'retweet_count'
p2925
NsS'geo'
p2926
NsS'id'
p2927
I747739595935744
sa(dp2928
S'favorited'
p2929
I00
sS'truncated'
p2930
I00
sS'text'
p2931
S'Getting ready for my date night'
p2932
sS'created_at'
p2933
S'Fri Nov 05 22:03:25 +0000 2010'
p2934
sS'retweeted'
p2935
I00
sS'coordinates'
p2936
NsS'in_reply_to_status_id'
p2937
NsS'place'
p2938
NsS'in_reply_to_screen_name'
p2939
NsS'retweet_count'
p2940
NsS'geo'
p2941
NsS'id'
p2942
I669538471378944
sa(dp2943
S'favorited'
p2944
I00
sS'truncated'
p2945
I00
sS'text'
p2946
S'@DjMeatballMGM that was for the first time back a long time ago'
p2947
sS'created_at'
p2948
S'Fri Nov 05 22:01:18 +0000 2010'
p2949
sS'retweeted'
p2950
I00
sS'coordinates'
p2951
NsS'in_reply_to_status_id'
p2952
I668636305948673
sS'place'
p2953
NsS'in_reply_to_screen_name'
p2954
S'DjMeatballMGM'
p2955
sS'retweet_count'
p2956
NsS'geo'
p2957
NsS'id'
p2958
I669007346671616
sasg274
(lp2959
S'Chinaispoison'
p2960
aS'FacetStudio'
p2961
aS'IAMBIGO'
p2962
aS'YBT300'
p2963
aS'BattlecamNation'
p2964
aS'Donkhafa'
p2965
aS'brentnhunter'
p2966
aS'sunkingz'
p2967
aS'HAMILTON_PARK'
p2968
aS'VonOnline'
p2969
aS'The80sBabyBabyy'
p2970
aS'LilPlayBoii'
p2971
aS'MoneyDeity'
p2972
aS'VonBeats'
p2973
aS'buddydadrunk'
p2974
aS'IAMBULLETZ'
p2975
aS'Schumperli'
p2976
aS'araabMUZIK'
p2977
aS'up4happylife'
p2978
aS'Untamedguru'
p2979
aS'LUCKYiCEFANS'
p2980
aS'teamfollow_'
p2981
aS'KevinTir'
p2982
aS'SoftShayButta'
p2983
aS'MmaJunkie21'
p2984
aS'Drokaveli'
p2985
aS'DizzysMusic'
p2986
aS'moldsu'
p2987
aS'RudeBwoyRoscoe'
p2988
aS'8StarENT'
p2989
aS'ilovemylefteye'
p2990
aS'InDaBooth'
p2991
aS'URBAN_INK_MODEL'
p2992
aS'x0_Tashi_0x'
p2993
aS'viconthetrack'
p2994
aS'balaramnayak'
p2995
aS'itzSoFluffy'
p2996
aS'SkizzleMyNizzle'
p2997
aS'DEquality'
p2998
aS'Fresh_Teeco504'
p2999
aS'Mellyakadatniga'
p3000
aS'IAmMattyJ'
p3001
aS'IAMPOPGATES'
p3002
aS'ImRenoGood'
p3003
aS'diamantemusic89'
p3004
aS'CubanPrincessa'
p3005
aS'305sFreshPrince'
p3006
aS'LatrellTruth'
p3007
aS'JamesCruzMusic'
p3008
aS'IAMChrisMcCain'
p3009
aS'jookdakangsc'
p3010
aS'LouieVproducer'
p3011
aS'SMC_iCE'
p3012
aS'iHateBlackStaks'
p3013
aS'Cynth1aNyx'
p3014
aS'EddieArchie'
p3015
aS'ClockWorkCEO'
p3016
aS'cloud9oohlahlah'
p3017
aS'ShawnKCastille'
p3018
aS'aNerdsWord'
p3019
aS'LexLevi'
p3020
aS'MakeEmSayNiko'
p3021
aS'iamscottpatters'
p3022
aS'therealPS'
p3023
aS'mywadido'
p3024
aS'luvMEsumHONKEYs'
p3025
aS'InitialTee'
p3026
aS'DiabloDaGeneral'
p3027
aS'AP_THE_REBEL'
p3028
aS'ThisIsDeJay'
p3029
aS'BryceDion'
p3030
aS'ppanamaredd'
p3031
aS'RIc0BeAtz1449'
p3032
aS'FlorianConnan'
p3033
aS'OfficialFlite'
p3034
aS'COMPTONSDOUBLEP'
p3035
aS'99centbeatshop'
p3036
aS'Urnotcute'
p3037
aS'platinum1ice'
p3038
aS'StreetLoyalENT'
p3039
aS'SliMMGoon'
p3040
aS'ModelMarcKeaton'
p3041
aS'ThaOphiscal'
p3042
aS'Sheen300'
p3043
aS'vdoMOB'
p3044
aS'boricuapacosolt'
p3045
aS'DaddyBawsten'
p3046
aS'T_Chobo'
p3047
aS'RAERAECAKE'
p3048
aS'Im_SkyHigh'
p3049
aS'SocialMedia_ATL'
p3050
aS'MiseRachyy'
p3051
aS'MetroABN'
p3052
aS'QTwantsU'
p3053
aS'WeLoveYouForbes'
p3054
aS'Bailey_Tavon'
p3055
aS'Quote2Uplift'
p3056
aS'MikeStarMusic'
p3057
aS'MilnerDocuments'
p3058
aS'Gama44'
p3059
asg300
(lp3060
S'Donkhafa'
p3061
aS'IAMBIGO'
p3062
aS'sunkingz'
p3063
aS'BattlecamNation'
p3064
aS'YBT300'
p3065
aS'HAMILTON_PARK'
p3066
aS'The80sBabyBabyy'
p3067
aS'VonOnline'
p3068
aS'MoneyDeity'
p3069
aS'LilPlayBoii'
p3070
aS'VonBeats'
p3071
aS'IAMBULLETZ'
p3072
aS'araabMUZIK'
p3073
aS'Schumperli'
p3074
aS'buddydadrunk'
p3075
aS'Untamedguru'
p3076
aS'SoftShayButta'
p3077
aS'KevinTir'
p3078
aS'teamfollow_'
p3079
aS'MmaJunkie21'
p3080
aS'MayBacc_R'
p3081
aS'RudeBwoyRoscoe'
p3082
aS'ilovemylefteye'
p3083
aS'moldsu'
p3084
aS'DizzysMusic'
p3085
aS'Drokaveli'
p3086
aS'viconthetrack'
p3087
aS'x0_Tashi_0x'
p3088
aS'InDaBooth'
p3089
aS'URBAN_INK_MODEL'
p3090
aS'balaramnayak'
p3091
aS'SkizzleMyNizzle'
p3092
aS'itzSoFluffy'
p3093
aS'ImRenoGood'
p3094
aS'IAMPOPGATES'
p3095
aS'IAmMattyJ'
p3096
aS'Mellyakadatniga'
p3097
aS'Fresh_Teeco504'
p3098
aS'DEquality'
p3099
aS'SMC_iCE'
p3100
aS'LouieVproducer'
p3101
aS'jookdakangsc'
p3102
aS'IAMChrisMcCain'
p3103
aS'JamesCruzMusic'
p3104
aS'LatrellTruth'
p3105
aS'305sFreshPrince'
p3106
aS'diamantemusic89'
p3107
aS'CubanPrincessa'
p3108
aS'iHateBlackStaks'
p3109
aS'EddieArchie'
p3110
aS'Cynth1aNyx'
p3111
aS'ClockWorkCEO'
p3112
aS'ShawnKCastille'
p3113
aS'cloud9oohlahlah'
p3114
aS'aNerdsWord'
p3115
aS'LexLevi'
p3116
aS'MakeEmSayNiko'
p3117
aS'iamscottpatters'
p3118
aS'mywadido'
p3119
aS'therealPS'
p3120
aS'luvMEsumHONKEYs'
p3121
aS'InitialTee'
p3122
aS'ppanamaredd'
p3123
aS'ThisIsDeJay'
p3124
aS'AP_THE_REBEL'
p3125
aS'DiabloDaGeneral'
p3126
aS'BryceDion'
p3127
aS'FlorianConnan'
p3128
aS'RIc0BeAtz1449'
p3129
aS'OfficialFlite'
p3130
aS'99centbeatshop'
p3131
aS'COMPTONSDOUBLEP'
p3132
aS'ThaOphiscal'
p3133
aS'platinum1ice'
p3134
aS'Urnotcute'
p3135
aS'SliMMGoon'
p3136
aS'StreetLoyalENT'
p3137
aS'vdoMOB'
p3138
aS'Sheen300'
p3139
aS'RAERAECAKE'
p3140
aS'T_Chobo'
p3141
aS'DaddyBawsten'
p3142
aS'boricuapacosolt'
p3143
aS'ModelMarcKeaton'
p3144
aS'QTwantsU'
p3145
aS'MetroABN'
p3146
aS'MiseRachyy'
p3147
aS'SocialMedia_ATL'
p3148
aS'WeLoveYouForbes'
p3149
aS'Im_SkyHigh'
p3150
aS'Bailey_Tavon'
p3151
aS'RubyBrogan'
p3152
aS'Miss_Yaiz'
p3153
aS'Gama44'
p3154
aS'MilnerDocuments'
p3155
aS'MikeStarMusic'
p3156
aS'Quote2Uplift'
p3157
aS'signsbtmarietta'
p3158
aS'Rick_Paradigm'
p3159
aS'WagesCPA'
p3160
asg326
g2011
sg328
g329
(S'\x07\xda\x0b\x08\x16\x06\x0c\ne\x11'
p3161
tp3162
Rp3163
sa(dp3164
g2
(lp3165
(dp3166
S'favorited'
p3167
I00
sS'truncated'
p3168
I00
sS'text'
p3169
S'About to go hit the gym, time to transform into #BeastMode'
p3170
sS'created_at'
p3171
S'Tue Nov 09 01:55:35 +0000 2010'
p3172
sS'retweeted'
p3173
I00
sS'coordinates'
p3174
NsS'in_reply_to_status_id'
p3175
NsS'place'
p3176
NsS'in_reply_to_screen_name'
p3177
NsS'retweet_count'
p3178
NsS'geo'
p3179
NsS'id'
p3180
I1815130551623680
sa(dp3181
S'favorited'
p3182
I00
sS'truncated'
p3183
I00
sS'text'
p3184
S'Im Out'
p3185
sS'created_at'
p3186
S'Mon Nov 08 07:12:19 +0000 2010'
p3187
sS'retweeted'
p3188
I00
sS'coordinates'
p3189
NsS'in_reply_to_status_id'
p3190
NsS'place'
p3191
NsS'in_reply_to_screen_name'
p3192
NsS'retweet_count'
p3193
NsS'geo'
p3194
NsS'id'
p3195
I1532449242746880
sa(dp3196
S'favorited'
p3197
I00
sS'truncated'
p3198
I00
sS'text'
p3199
S'@WickedAngel007 im a southern boy myself and i cant stand my country accent,lol'
p3200
sS'created_at'
p3201
S'Mon Nov 08 07:07:31 +0000 2010'
p3202
sS'retweeted'
p3203
I00
sS'coordinates'
p3204
NsS'in_reply_to_status_id'
p3205
I1530771936387072
sS'place'
p3206
NsS'in_reply_to_screen_name'
p3207
S'WickedAngel007'
p3208
sS'retweet_count'
p3209
NsS'geo'
p3210
NsS'id'
p3211
I1531241593573376
sa(dp3212
S'favorited'
p3213
I00
sS'truncated'
p3214
I00
sS'text'
p3215
S'@EricFrancoG haha'
p3216
sS'created_at'
p3217
S'Mon Nov 08 07:01:41 +0000 2010'
p3218
sS'retweeted'
p3219
I00
sS'coordinates'
p3220
NsS'in_reply_to_status_id'
p3221
I1529563431575553
sS'place'
p3222
NsS'in_reply_to_screen_name'
p3223
S'EricFrancoG'
p3224
sS'retweet_count'
p3225
NsS'geo'
p3226
NsS'id'
p3227
I1529775537520640
sa(dp3228
S'favorited'
p3229
I00
sS'truncated'
p3230
I00
sS'text'
p3231
S'@MzJackie08 it was awesome,how was yours?'
p3232
sS'created_at'
p3233
S'Mon Nov 08 06:56:02 +0000 2010'
p3234
sS'retweeted'
p3235
I00
sS'coordinates'
p3236
NsS'in_reply_to_status_id'
p3237
I1528172432596992
sS'place'
p3238
NsS'in_reply_to_screen_name'
p3239
S'MzJackie08'
p3240
sS'retweet_count'
p3241
NsS'geo'
p3242
NsS'id'
p3243
I1528353123213312
sa(dp3244
S'favorited'
p3245
I00
sS'truncated'
p3246
I00
sS'text'
p3247
S'@MzJackie08 good,u?'
p3248
sS'created_at'
p3249
S'Mon Nov 08 06:52:40 +0000 2010'
p3250
sS'retweeted'
p3251
I00
sS'coordinates'
p3252
NsS'in_reply_to_status_id'
p3253
I1527011373752320
sS'place'
p3254
NsS'in_reply_to_screen_name'
p3255
S'MzJackie08'
p3256
sS'retweet_count'
p3257
NsS'geo'
p3258
NsS'id'
p3259
I1527505190129664
sa(dp3260
S'favorited'
p3261
I00
sS'truncated'
p3262
I00
sS'text'
p3263
S'#TheseAreYourConfessions &gt;&gt;&gt;&gt;  Im your favorite white boy ;)'
p3264
sS'created_at'
p3265
S'Mon Nov 08 06:51:21 +0000 2010'
p3266
sS'retweeted'
p3267
I00
sS'coordinates'
p3268
NsS'in_reply_to_status_id'
p3269
NsS'place'
p3270
NsS'in_reply_to_screen_name'
p3271
NsS'retweet_count'
p3272
NsS'geo'
p3273
NsS'id'
p3274
I1527174431514624
sa(dp3275
S'favorited'
p3276
I00
sS'truncated'
p3277
I00
sS'text'
p3278
S'@MsYodyOD good one ;)'
p3279
sS'created_at'
p3280
S'Mon Nov 08 06:46:33 +0000 2010'
p3281
sS'retweeted'
p3282
I00
sS'coordinates'
p3283
NsS'in_reply_to_status_id'
p3284
I1525656357707776
sS'place'
p3285
NsS'in_reply_to_screen_name'
p3286
S'MsYodyOD'
p3287
sS'retweet_count'
p3288
NsS'geo'
p3289
NsS'id'
p3290
I1525967545696257
sa(dp3291
S'favorited'
p3292
I00
sS'truncated'
p3293
I00
sS'text'
p3294
S'@island_fever it was any flavor'
p3295
sS'created_at'
p3296
S'Mon Nov 08 06:46:20 +0000 2010'
p3297
sS'retweeted'
p3298
I00
sS'coordinates'
p3299
NsS'in_reply_to_status_id'
p3300
I1525080630763520
sS'place'
p3301
NsS'in_reply_to_screen_name'
p3302
S'island_fever'
p3303
sS'retweet_count'
p3304
NsS'geo'
p3305
NsS'id'
p3306
I1525913216876545
sa(dp3307
S'favorited'
p3308
I00
sS'truncated'
p3309
I00
sS'text'
p3310
S'#ConfessionTime My first job was a cart-pusher at walmart and somehow 5 years later im working armed security on a federal installation'
p3311
sS'created_at'
p3312
S'Mon Nov 08 06:45:57 +0000 2010'
p3313
sS'retweeted'
p3314
I00
sS'coordinates'
p3315
NsS'in_reply_to_status_id'
p3316
NsS'place'
p3317
NsS'in_reply_to_screen_name'
p3318
NsS'retweet_count'
p3319
NsS'geo'
p3320
NsS'id'
p3321
I1525814248087552
sa(dp3322
S'favorited'
p3323
I00
sS'truncated'
p3324
I00
sS'text'
p3325
S'#ConfessionTime I used to pour an extra cup of sugar in the kool-aid after my mom made it'
p3326
sS'created_at'
p3327
S'Mon Nov 08 06:42:07 +0000 2010'
p3328
sS'retweeted'
p3329
I00
sS'coordinates'
p3330
NsS'in_reply_to_status_id'
p3331
NsS'place'
p3332
NsS'in_reply_to_screen_name'
p3333
NsS'retweet_count'
p3334
NsS'geo'
p3335
NsS'id'
p3336
I1524850082451456
sa(dp3337
S'favorited'
p3338
I00
sS'truncated'
p3339
I00
sS'text'
p3340
S'@island_fever your to funny ;)'
p3341
sS'created_at'
p3342
S'Mon Nov 08 06:39:54 +0000 2010'
p3343
sS'retweeted'
p3344
I00
sS'coordinates'
p3345
NsS'in_reply_to_status_id'
p3346
I1524051759603712
sS'place'
p3347
NsS'in_reply_to_screen_name'
p3348
S'island_fever'
p3349
sS'retweet_count'
p3350
NsS'geo'
p3351
NsS'id'
p3352
I1524293762547712
sa(dp3353
S'favorited'
p3354
I00
sS'truncated'
p3355
I00
sS'text'
p3356
S'@PartyWithKen same here,hes dope'
p3357
sS'created_at'
p3358
S'Mon Nov 08 06:39:43 +0000 2010'
p3359
sS'retweeted'
p3360
I00
sS'coordinates'
p3361
NsS'in_reply_to_status_id'
p3362
I1524047359778816
sS'place'
p3363
NsS'in_reply_to_screen_name'
p3364
S'PartyWithKen'
p3365
sS'retweet_count'
p3366
NsS'geo'
p3367
NsS'id'
p3368
I1524245146370050
sa(dp3369
S'favorited'
p3370
I00
sS'truncated'
p3371
I00
sS'text'
p3372
S'#ThatsWhatSheSaid'
p3373
sS'created_at'
p3374
S'Mon Nov 08 06:32:12 +0000 2010'
p3375
sS'retweeted'
p3376
I00
sS'coordinates'
p3377
NsS'in_reply_to_status_id'
p3378
NsS'place'
p3379
NsS'in_reply_to_screen_name'
p3380
NsS'retweet_count'
p3381
NsS'geo'
p3382
NsS'id'
p3383
I1522354760978432
sa(dp3384
S'favorited'
p3385
I00
sS'truncated'
p3386
I00
sS'text'
p3387
S'@stretch637 yesssirrr!!'
p3388
sS'created_at'
p3389
S'Mon Nov 08 06:31:10 +0000 2010'
p3390
sS'retweeted'
p3391
I00
sS'coordinates'
p3392
NsS'in_reply_to_status_id'
p3393
I1521994990362625
sS'place'
p3394
NsS'in_reply_to_screen_name'
p3395
S'stretch637'
p3396
sS'retweet_count'
p3397
NsS'geo'
p3398
NsS'id'
p3399
I1522094525386752
sa(dp3400
S'favorited'
p3401
I00
sS'truncated'
p3402
I00
sS'text'
p3403
S'@stretch637 he goes hard always bro'
p3404
sS'created_at'
p3405
S'Mon Nov 08 06:29:07 +0000 2010'
p3406
sS'retweeted'
p3407
I00
sS'coordinates'
p3408
NsS'in_reply_to_status_id'
p3409
I1521277693075456
sS'place'
p3410
NsS'in_reply_to_screen_name'
p3411
S'stretch637'
p3412
sS'retweet_count'
p3413
NsS'geo'
p3414
NsS'id'
p3415
I1521579670376448
sa(dp3416
S'favorited'
p3417
I00
sS'truncated'
p3418
I00
sS'text'
p3419
S'Everyone is hatin on pitbull,LOL'
p3420
sS'created_at'
p3421
S'Mon Nov 08 06:27:11 +0000 2010'
p3422
sS'retweeted'
p3423
I00
sS'coordinates'
p3424
NsS'in_reply_to_status_id'
p3425
NsS'place'
p3426
NsS'in_reply_to_screen_name'
p3427
NsS'retweet_count'
p3428
NsS'geo'
p3429
NsS'id'
p3430
I1521093181440000
sa(dp3431
S'favorited'
p3432
I00
sS'truncated'
p3433
I00
sS'text'
p3434
S'@SassyxSunshyne same here ;)'
p3435
sS'created_at'
p3436
S'Mon Nov 08 06:24:13 +0000 2010'
p3437
sS'retweeted'
p3438
I00
sS'coordinates'
p3439
NsS'in_reply_to_status_id'
p3440
I1519851256414208
sS'place'
p3441
NsS'in_reply_to_screen_name'
p3442
S'SassyxSunshyne'
p3443
sS'retweet_count'
p3444
NsS'geo'
p3445
NsS'id'
p3446
I1520348080119808
sa(dp3447
S'favorited'
p3448
I00
sS'truncated'
p3449
I00
sS'text'
p3450
S"my top 5 favorite artist,what do ya'll think&gt;&gt;&gt; 5.Pitbull 4. J Timberlake 3.Eminem 2.Drake 1.Lil Wayne"
p3451
sS'created_at'
p3452
S'Mon Nov 08 06:23:46 +0000 2010'
p3453
sS'retweeted'
p3454
I00
sS'coordinates'
p3455
NsS'in_reply_to_status_id'
p3456
NsS'place'
p3457
NsS'in_reply_to_screen_name'
p3458
NsS'retweet_count'
p3459
NsS'geo'
p3460
NsS'id'
p3461
I1520232992604160
sa(dp3462
S'favorited'
p3463
I00
sS'truncated'
p3464
I00
sS'text'
p3465
S'@island_fever lmao'
p3466
sS'created_at'
p3467
S'Mon Nov 08 06:20:09 +0000 2010'
p3468
sS'retweeted'
p3469
I00
sS'coordinates'
p3470
NsS'in_reply_to_status_id'
p3471
I1519143618613248
sS'place'
p3472
NsS'in_reply_to_screen_name'
p3473
S'island_fever'
p3474
sS'retweet_count'
p3475
NsS'geo'
p3476
NsS'id'
p3477
I1519324699295744
sasg274
(lp3478
S'amiiiigo0630'
p3479
aS'iBreakTha_Rules'
p3480
aS'GalaxyThughtsFP'
p3481
aS'cacyyy0216'
p3482
aS'BreAunaShanti'
p3483
aS'IamFoKisT'
p3484
aS'mahjonvillage'
p3485
aS'Italian_Miamor'
p3486
aS'MFFresh'
p3487
aS'Guto_regis'
p3488
aS'manifestOmachaw'
p3489
aS'kimclark5'
p3490
aS'TheInfmsNmbr5'
p3491
aS'throwAstackonJP'
p3492
aS'GoodProblemsEnt'
p3493
aS'Poka_hontas'
p3494
aS'calitip_'
p3495
aS'CallMeVantee'
p3496
aS'DicedaPlayboy'
p3497
aS'IAMBIGO'
p3498
aS'nealrap'
p3499
aS'pubeny'
p3500
aS'eForexDayTrader'
p3501
aS'iiWannaRokk'
p3502
aS'laura_castro3'
p3503
aS'msemilymegan'
p3504
aS'Adri_Graham'
p3505
aS'imvibe'
p3506
aS'tiEGottemGOiN'
p3507
aS'_YeLLaHGirl_'
p3508
aS'TerrorSquad1017'
p3509
aS'daronjonesmusic'
p3510
aS'Sheray_Michelle'
p3511
aS'HarrisDaGeneral'
p3512
aS'Real_4_Lyfe'
p3513
aS'braydynsbff'
p3514
aS'bizzybanking'
p3515
aS'YourShitStinks2'
p3516
aS'SwaggaRight_YA'
p3517
aS'missvee90'
p3518
aS'FifiMelko'
p3519
aS'SKUSH200'
p3520
aS'Tunechi_Duh'
p3521
aS'GoodbyeNatalie'
p3522
aS'julilegler'
p3523
aS'jessica_b0oxo'
p3524
aS'ItsQuoteology'
p3525
aS'BeautifullYanha'
p3526
aS'BaddAsx_Owens'
p3527
aS'mortgagegods'
p3528
aS'mikeswinny'
p3529
aS'Hannah_Nichols'
p3530
aS'kennyb_smoove'
p3531
aS'marykristina'
p3532
aS'ThatsBiebtastic'
p3533
aS'funrlcemetrygrl'
p3534
aS'riahvalerie101'
p3535
aS'urgurlcheetah'
p3536
aS'FENDIimann'
p3537
aS'pinkyspice_360'
p3538
aS'SwingJuice'
p3539
aS'LizFknGeeBitch'
p3540
aS'iTTyBiTTyPaiGe'
p3541
aS'BeatFlippaz'
p3542
aS'HotSauceTruck'
p3543
aS'Hawkeroo'
p3544
aS'DexterFam'
p3545
aS'SexMoneyChi'
p3546
aS'LilEric30'
p3547
aS'jennaleman'
p3548
aS'AngelinaLillie'
p3549
aS'ATLien'
p3550
aS'Mr_GetMoney24_7'
p3551
aS'NEVAEH_x3'
p3552
aS'VividBxtch'
p3553
aS'nethanguwant'
p3554
aS'AlanahRogerss'
p3555
aS'CadillacRa'
p3556
aS'_BANGER'
p3557
aS'Anastasia_Songz'
p3558
aS'SkkyMofooh'
p3559
aS'melinDaH12'
p3560
aS'FnkyC0ldM3dina'
p3561
aS'Sexxxy_Love'
p3562
aS'JusMurray201'
p3563
aS'PfifGM_6'
p3564
aS'DntGiveA_DAMN'
p3565
aS'MindlessMandii'
p3566
aS'drseo911'
p3567
aS'Allyheartselmo'
p3568
aS'iAmBradHamilton'
p3569
aS'MrConnection'
p3570
aS'Nickistackz'
p3571
aS'SoolTBieber'
p3572
aS'KSimone94'
p3573
aS'Donisha_'
p3574
aS'MyWeakHeart'
p3575
aS'BlackOutCitie'
p3576
aS'Girl_Melanie_10'
p3577
aS'ebaypassion'
p3578
asg300
(lp3579
S'iBreakTha_Rules'
p3580
aS'VonSpenzer'
p3581
aS'PresidentPrince'
p3582
aS'TJHerbert'
p3583
aS'throwAstackonJP'
p3584
aS'CallMeVantee'
p3585
aS'chey23_NY'
p3586
aS'MSTANKEN9'
p3587
aS'pubeny'
p3588
aS'TayFoxxx'
p3589
aS'SimplyRaiJul'
p3590
aS'Sadie_Jose'
p3591
aS'Kevn21'
p3592
aS'FifiMelko'
p3593
aS'SwaggaRight_YA'
p3594
aS'missvee90'
p3595
aS'_YeLLaHGirl_'
p3596
aS'slickthevic'
p3597
aS'LsIsIAndIAmHim'
p3598
aS'dmr1978'
p3599
aS'BenjiRoastbeef'
p3600
aS'scottiewinkler'
p3601
aS'lorenadfv'
p3602
aS'sammy_quiles'
p3603
aS'camille_smith'
p3604
aS'xTasyP'
p3605
aS'RickySoprano124'
p3606
aS'braydynsbff'
p3607
aS'landscientific'
p3608
aS'TeeTeeG3TFr3sh'
p3609
aS'weprs'
p3610
aS'Desvaniaodi'
p3611
aS'LuLuCs27'
p3612
aS'VegasDiamond600'
p3613
aS'thekidisai'
p3614
aS'zabrinabieber'
p3615
aS'dbharred'
p3616
aS'mailelafave'
p3617
aS'XenerationX'
p3618
aS'tweetyourit2'
p3619
aS'BellaTyree'
p3620
aS'LadyIssue'
p3621
aS'notebook02'
p3622
aS'Tunechi_Duh'
p3623
aS'GalaxyThughtsFP'
p3624
aS'Ilovejou2mats'
p3625
aS'jessica_b0oxo'
p3626
aS'BeautifullYanha'
p3627
aS'NissyBaddd'
p3628
aS'frauivonna'
p3629
aS'AriesChick1991'
p3630
aS'Smerelyn'
p3631
aS'Lady_khrizzy26'
p3632
aS'GoodProblemsEnt'
p3633
aS'solaart'
p3634
aS'JhosueDiaz'
p3635
aS'iGet_Goosebumpz'
p3636
aS'BbyRose'
p3637
aS'ItsQuoteology'
p3638
aS'f0ll0wback_girl'
p3639
aS'iSkateChocolate'
p3640
aS'BaddAsx_Owens'
p3641
aS'mikeswinny'
p3642
aS'Real_4_Lyfe'
p3643
aS'BlogTopLista'
p3644
aS'SKUSH200'
p3645
aS'itsurX'
p3646
aS'I_FUX_WITCHA'
p3647
aS'Shelisfocus'
p3648
aS'KThomas923'
p3649
aS'betssssybabee'
p3650
aS'nykkiloudstar'
p3651
aS'JUNAbels'
p3652
aS'Sexxxy_Love'
p3653
aS'EmceeWoodro'
p3654
aS'Corey_Bapes'
p3655
aS'IAmBoogieP'
p3656
aS'tiEGottemGOiN'
p3657
aS'beshaBEE'
p3658
aS'iiWannaRokk'
p3659
aS'Mr_RocSteady'
p3660
aS'CrystalJoyMarie'
p3661
aS'_PrettyMamacita'
p3662
aS'PrettyEyedboy'
p3663
aS'TeamTbr33ze'
p3664
aS'TRACKDROPPA'
p3665
aS'brobenson'
p3666
aS'SpiritMaterial'
p3667
aS'ColorMeBluee'
p3668
aS'laura_castro3'
p3669
aS'dorkyone19'
p3670
aS'sweetsmartieDub'
p3671
aS'msemilymegan'
p3672
aS'SWB_life'
p3673
aS'hhh_lover727'
p3674
aS'gmosalgado'
p3675
aS'riahvalerie101'
p3676
aS'BreAunaShanti'
p3677
aS'julilegler'
p3678
aS'mobilers2_a'
p3679
asg326
g2984
sg328
g329
(S'\x07\xda\x0b\x08\x16\x06\x16\x01\x81\x80'
p3680
tp3681
Rp3682
sa(dp3683
g2
(lp3684
(dp3685
S'favorited'
p3686
I00
sS'truncated'
p3687
I00
sS'text'
p3688
S'@Acdngirl ya, what a bunch of fit jerks'
p3689
sS'created_at'
p3690
S'Tue Nov 09 04:01:15 +0000 2010'
p3691
sS'retweeted'
p3692
I00
sS'coordinates'
p3693
NsS'in_reply_to_status_id'
p3694
I1846483569610752
sS'place'
p3695
NsS'in_reply_to_screen_name'
p3696
S'Acdngirl'
p3697
sS'retweet_count'
p3698
NsS'geo'
p3699
NsS'id'
p3700
I1846755054329856
sa(dp3701
S'favorited'
p3702
I00
sS'truncated'
p3703
I00
sS'text'
p3704
S"@ButtercupCooks don't worry I'm Warlock American. My grandfather was part warlock. I'm not a racist"
p3705
sS'created_at'
p3706
S'Tue Nov 09 04:01:00 +0000 2010'
p3707
sS'retweeted'
p3708
I00
sS'coordinates'
p3709
NsS'in_reply_to_status_id'
p3710
I1845546557906944
sS'place'
p3711
NsS'in_reply_to_screen_name'
p3712
S'ButtercupCooks'
p3713
sS'retweet_count'
p3714
NsS'geo'
p3715
NsS'id'
p3716
I1846692030717952
sa(dp3717
S'favorited'
p3718
I00
sS'truncated'
p3719
I00
sS'text'
p3720
S'Uummm no cell phones aloud in the gym? How stupid. How am I supposed to take pictures of people working out now??? Pfftttt'
p3721
sS'created_at'
p3722
S'Tue Nov 09 03:59:52 +0000 2010'
p3723
sS'retweeted'
p3724
I00
sS'coordinates'
p3725
NsS'in_reply_to_status_id'
p3726
NsS'place'
p3727
NsS'in_reply_to_screen_name'
p3728
NsS'retweet_count'
p3729
NsS'geo'
p3730
NsS'id'
p3731
I1846409145880577
sa(dp3732
S'favorited'
p3733
I00
sS'truncated'
p3734
I00
sS'text'
p3735
S'@astraxoxoxo you could very well be saving my life'
p3736
sS'created_at'
p3737
S'Tue Nov 09 03:54:29 +0000 2010'
p3738
sS'retweeted'
p3739
I00
sS'coordinates'
p3740
NsS'in_reply_to_status_id'
p3741
I1844685978996736
sS'place'
p3742
NsS'in_reply_to_screen_name'
p3743
S'astraxoxoxo'
p3744
sS'retweet_count'
p3745
NsS'geo'
p3746
NsS'id'
p3747
I1845054335361024
sa(dp3748
S'favorited'
p3749
I00
sS'truncated'
p3750
I00
sS'text'
p3751
S'@ButtercupCooks are you a witch?'
p3752
sS'created_at'
p3753
S'Tue Nov 09 03:54:12 +0000 2010'
p3754
sS'retweeted'
p3755
I00
sS'coordinates'
p3756
NsS'in_reply_to_status_id'
p3757
I1844800986816512
sS'place'
p3758
NsS'in_reply_to_screen_name'
p3759
S'ButtercupCooks'
p3760
sS'retweet_count'
p3761
NsS'geo'
p3762
NsS'id'
p3763
I1844979785793536
sa(dp3764
S'favorited'
p3765
I00
sS'truncated'
p3766
I00
sS'text'
p3767
S"I don't even think Chuck Norris could de-seed a pomegranate"
p3768
sS'created_at'
p3769
S'Tue Nov 09 03:51:45 +0000 2010'
p3770
sS'retweeted'
p3771
I00
sS'coordinates'
p3772
NsS'in_reply_to_status_id'
p3773
NsS'place'
p3774
NsS'in_reply_to_screen_name'
p3775
NsS'retweet_count'
p3776
NsS'geo'
p3777
NsS'id'
p3778
I1844365978767360
sa(dp3779
S'favorited'
p3780
I00
sS'truncated'
p3781
I00
sS'text'
p3782
S"@astraxoxoxo I'd eat pomegranate every meal, you'd be a savior"
p3783
sS'created_at'
p3784
S'Tue Nov 09 03:51:09 +0000 2010'
p3785
sS'retweeted'
p3786
I00
sS'coordinates'
p3787
NsS'in_reply_to_status_id'
p3788
I1843852981837824
sS'place'
p3789
NsS'in_reply_to_screen_name'
p3790
S'astraxoxoxo'
p3791
sS'retweet_count'
p3792
NsS'geo'
p3793
NsS'id'
p3794
I1844214644080640
sa(dp3795
S'favorited'
p3796
I00
sS'truncated'
p3797
I00
sS'text'
p3798
S'@LindsayLetcher ok... Extra cushion and a basket or cozy for testicles'
p3799
sS'created_at'
p3800
S'Tue Nov 09 03:49:37 +0000 2010'
p3801
sS'retweeted'
p3802
I00
sS'coordinates'
p3803
NsS'in_reply_to_status_id'
p3804
I1843387250511873
sS'place'
p3805
NsS'in_reply_to_screen_name'
p3806
S'LindsayLetcher'
p3807
sS'retweet_count'
p3808
NsS'geo'
p3809
NsS'id'
p3810
I1843826436079616
sa(dp3811
S'favorited'
p3812
I00
sS'truncated'
p3813
I00
sS'text'
p3814
S'@astraxoxoxo professional pomegranate deseeder'
p3815
sS'created_at'
p3816
S'Tue Nov 09 03:49:14 +0000 2010'
p3817
sS'retweeted'
p3818
I00
sS'coordinates'
p3819
NsS'in_reply_to_status_id'
p3820
I1843158224740352
sS'place'
p3821
NsS'in_reply_to_screen_name'
p3822
S'astraxoxoxo'
p3823
sS'retweet_count'
p3824
NsS'geo'
p3825
NsS'id'
p3826
I1843732685000704
sa(dp3827
S'favorited'
p3828
I00
sS'truncated'
p3829
I00
sS'text'
p3830
S'Someday I hope to develop the testicle friendly bike'
p3831
sS'created_at'
p3832
S'Tue Nov 09 03:46:05 +0000 2010'
p3833
sS'retweeted'
p3834
I00
sS'coordinates'
p3835
NsS'in_reply_to_status_id'
p3836
NsS'place'
p3837
NsS'in_reply_to_screen_name'
p3838
NsS'retweet_count'
p3839
NsS'geo'
p3840
NsS'id'
p3841
I1842939986706434
sa(dp3842
S'favorited'
p3843
I00
sS'truncated'
p3844
I00
sS'text'
p3845
S"@Sexy_Mermaid  I did physical therapy once and it wasn't for me. I just researched exercises that I do at the gym that help"
p3846
sS'created_at'
p3847
S'Tue Nov 09 03:13:38 +0000 2010'
p3848
sS'retweeted'
p3849
I00
sS'coordinates'
p3850
NsS'in_reply_to_status_id'
p3851
I1832576494870528
sS'place'
p3852
NsS'in_reply_to_screen_name'
p3853
S'Sexy_Mermaid'
p3854
sS'retweet_count'
p3855
NsS'geo'
p3856
NsS'id'
p3857
I1834771294453760
sa(dp3858
S'favorited'
p3859
I00
sS'truncated'
p3860
I00
sS'text'
p3861
S"@Sexy_Mermaid I still have to do the research. I'll ask the doctors when I go back to the hospital"
p3862
sS'created_at'
p3863
S'Tue Nov 09 02:56:54 +0000 2010'
p3864
sS'retweeted'
p3865
I00
sS'coordinates'
p3866
NsS'in_reply_to_status_id'
p3867
I1830368709709824
sS'place'
p3868
NsS'in_reply_to_screen_name'
p3869
S'Sexy_Mermaid'
p3870
sS'retweet_count'
p3871
NsS'geo'
p3872
NsS'id'
p3873
I1830561186316288
sa(dp3874
S'favorited'
p3875
I00
sS'truncated'
p3876
I00
sS'text'
p3877
S"@astraxoxoxo my bodies holding me back so bad right now... It's actually horribly depressing"
p3878
sS'created_at'
p3879
S'Tue Nov 09 02:56:20 +0000 2010'
p3880
sS'retweeted'
p3881
I00
sS'coordinates'
p3882
NsS'in_reply_to_status_id'
p3883
I1830252040953857
sS'place'
p3884
NsS'in_reply_to_screen_name'
p3885
S'astraxoxoxo'
p3886
sS'retweet_count'
p3887
NsS'geo'
p3888
NsS'id'
p3889
I1830420450648066
sa(dp3890
S'favorited'
p3891
I00
sS'truncated'
p3892
I00
sS'text'
p3893
S"@astraxoxoxo I have bad back problems and hip problems... I'm so lame :( I haven't been doing anything"
p3894
sS'created_at'
p3895
S'Tue Nov 09 02:54:58 +0000 2010'
p3896
sS'retweeted'
p3897
I00
sS'coordinates'
p3898
NsS'in_reply_to_status_id'
p3899
I1829909412454400
sS'place'
p3900
NsS'in_reply_to_screen_name'
p3901
S'astraxoxoxo'
p3902
sS'retweet_count'
p3903
NsS'geo'
p3904
NsS'id'
p3905
I1830073518792704
sa(dp3906
S'favorited'
p3907
I00
sS'truncated'
p3908
I00
sS'text'
p3909
S'@astraxoxoxo nothing beats running down a beautiful path outside'
p3910
sS'created_at'
p3911
S'Tue Nov 09 02:52:16 +0000 2010'
p3912
sS'retweeted'
p3913
I00
sS'coordinates'
p3914
NsS'in_reply_to_status_id'
p3915
I1829033612410880
sS'place'
p3916
NsS'in_reply_to_screen_name'
p3917
S'astraxoxoxo'
p3918
sS'retweet_count'
p3919
NsS'geo'
p3920
NsS'id'
p3921
I1829395991891969
sa(dp3922
S'favorited'
p3923
I00
sS'truncated'
p3924
I00
sS'text'
p3925
S'@astraxoxoxo hahaha you butt toner!'
p3926
sS'created_at'
p3927
S'Tue Nov 09 02:51:45 +0000 2010'
p3928
sS'retweeted'
p3929
I00
sS'coordinates'
p3930
NsS'in_reply_to_status_id'
p3931
I1829033612410880
sS'place'
p3932
NsS'in_reply_to_screen_name'
p3933
S'astraxoxoxo'
p3934
sS'retweet_count'
p3935
NsS'geo'
p3936
NsS'id'
p3937
I1829265406431233
sa(dp3938
S'favorited'
p3939
I00
sS'truncated'
p3940
I00
sS'text'
p3941
S'@astraxoxoxo run :) lots of running will work on your core! Sit ups of course and pilates videos actually work for my friends! 15 min @ home'
p3942
sS'created_at'
p3943
S'Tue Nov 09 02:45:24 +0000 2010'
p3944
sS'retweeted'
p3945
I00
sS'coordinates'
p3946
NsS'in_reply_to_status_id'
p3947
I1827407912771584
sS'place'
p3948
NsS'in_reply_to_screen_name'
p3949
S'astraxoxoxo'
p3950
sS'retweet_count'
p3951
NsS'geo'
p3952
NsS'id'
p3953
I1827666034429952
sa(dp3954
S'favorited'
p3955
I00
sS'truncated'
p3956
I00
sS'text'
p3957
S"@astraxoxoxo everyones different. I'm 200 at 5'11 and it says I'm obese yet I'm in shape and nowhere near fat. BMI index is ridiculous"
p3958
sS'created_at'
p3959
S'Tue Nov 09 02:41:43 +0000 2010'
p3960
sS'retweeted'
p3961
I00
sS'coordinates'
p3962
NsS'in_reply_to_status_id'
p3963
I1826097909997568
sS'place'
p3964
NsS'in_reply_to_screen_name'
p3965
S'astraxoxoxo'
p3966
sS'retweet_count'
p3967
NsS'geo'
p3968
NsS'id'
p3969
I1826740229898240
sa(dp3970
S'favorited'
p3971
I00
sS'truncated'
p3972
I00
sS'text'
p3973
S'@Sexy_Mermaid ok then your set'
p3974
sS'created_at'
p3975
S'Tue Nov 09 02:35:11 +0000 2010'
p3976
sS'retweeted'
p3977
I00
sS'coordinates'
p3978
NsS'in_reply_to_status_id'
p3979
I1824886297206784
sS'place'
p3980
NsS'in_reply_to_screen_name'
p3981
S'Sexy_Mermaid'
p3982
sS'retweet_count'
p3983
NsS'geo'
p3984
NsS'id'
p3985
I1825094246604801
sa(dp3986
S'favorited'
p3987
I00
sS'truncated'
p3988
I00
sS'text'
p3989
S"@Sexy_Mermaid that's not what I meant."
p3990
sS'created_at'
p3991
S'Tue Nov 09 02:34:38 +0000 2010'
p3992
sS'retweeted'
p3993
I00
sS'coordinates'
p3994
NsS'in_reply_to_status_id'
p3995
I1824318153560065
sS'place'
p3996
NsS'in_reply_to_screen_name'
p3997
S'Sexy_Mermaid'
p3998
sS'retweet_count'
p3999
NsS'geo'
p4000
NsS'id'
p4001
I1824955872317440
sasg274
(lp4002
S'jackievitamins'
p4003
aS'pilates_yoga_I'
p4004
aS'HealthyWorld123'
p4005
aS'best_wines'
p4006
aS'TheLinkMedic'
p4007
aS'milblogging'
p4008
aS'JohnTeshRadio'
p4009
aS'metrocalgary'
p4010
aS'Chinaispoison'
p4011
aS'Ghostface_ED'
p4012
aS'Briones2'
p4013
aS'fitnessforuscom'
p4014
aS'prettypipeplumb'
p4015
aS'FindDomains'
p4016
aS'blogyourworld'
p4017
aS'vickyadvice'
p4018
aS'StevenRothberg'
p4019
aS'mommysavesbig'
p4020
aS'IconEnterprises'
p4021
aS'Jonathan_Lowell'
p4022
aS'tmaemarketing'
p4023
aS'FreeFromDirt'
p4024
aS'SitesbyReytek'
p4025
aS'wastedyourtime'
p4026
aS'GirlFightGlobal'
p4027
aS'renatla'
p4028
aS'cintakame'
p4029
aS'dedycombuzer'
p4030
aS'dreamssfandy'
p4031
aS'iManonica'
p4032
aS'RoyIsThaTruth'
p4033
aS'MegganRox'
p4034
aS'Boozenik'
p4035
aS'IAMJREAL'
p4036
aS'PrachiRai'
p4037
aS'therealkcyrus'
p4038
aS'kevinthegeek'
p4039
aS'BradDoll'
p4040
aS'adamtheatheist'
p4041
aS'someartstudent'
p4042
aS'ashleystyle'
p4043
aS'PCSpeedGuy'
p4044
aS'CalgaryVipers'
p4045
aS'nicolaj_com'
p4046
aS'OhYeahOk'
p4047
aS'kplots'
p4048
aS'Sushant196'
p4049
aS'LifeofAJeanius'
p4050
aS'InetsilkEurope'
p4051
aS'KAM5AI'
p4052
aS'ashleyluvzDC'
p4053
aS'dcookfan08'
p4054
aS'DavidRocks08'
p4055
aS'1234DRP'
p4056
aS'eignavcook'
p4057
aS'TheCockerPiper'
p4058
aS'pipercookie'
p4059
aS'implu'
p4060
aS'jerk_dotcom'
p4061
aS'Sxy_MermaidLove'
p4062
aS'BABY_DUK3S'
p4063
aS'connect0123'
p4064
aS'benrowley78'
p4065
aS'Komposer1911'
p4066
aS'YHIMP'
p4067
aS'LexLevi'
p4068
aS'KevinTir'
p4069
aS'JackieSparrow33'
p4070
aS'TravisJCotton'
p4071
aS'IsDat_Vercelive'
p4072
aS'C_DIG'
p4073
aS'GekkoHeadhunter'
p4074
aS'amichalska'
p4075
aS'QuinncommaR'
p4076
aS'Tara_ThorntonBT'
p4077
aS'ERMadvocate'
p4078
aS'lVVVVVl'
p4079
aS'online_network'
p4080
aS'jamillahmyers'
p4081
aS'EXXXOTIC_BUNNY'
p4082
aS'InsaneFollowers'
p4083
aS'worldhealthhub'
p4084
aS'Sexy_Mermaid'
p4085
aS'IRREVERENT7'
p4086
aS'UNCLEMIKETWEETS'
p4087
aS'LadyBoopz'
p4088
aS'triMirror'
p4089
aS'iSlapFuckBoyz'
p4090
aS'ChainFollow'
p4091
aS'i_Follow'
p4092
aS'DianeHilz1177'
p4093
aS'JettPrescott'
p4094
aS'Evil_Vs_Good'
p4095
aS'faith_breaker'
p4096
aS'AndyKock1175'
p4097
aS'FOLLOWS_EXPRESS'
p4098
aS'Jaymoola'
p4099
aS'DeezDoubleDeez'
p4100
aS'Kes_OpenDoors'
p4101
aS'BellandaInParis'
p4102
asg300
(lp4103
S'milblogging'
p4104
aS'VenaCavva'
p4105
aS'Chinaispoison'
p4106
aS'soferella'
p4107
aS'Ghostface_ED'
p4108
aS'Briones2'
p4109
aS'fitnessforuscom'
p4110
aS'FindDomains'
p4111
aS'StevenRothberg'
p4112
aS'blogyourworld'
p4113
aS'Jonathan_Lowell'
p4114
aS'tmaemarketing'
p4115
aS'wastedyourtime'
p4116
aS'GirlFightGlobal'
p4117
aS'cintakame'
p4118
aS'iManonica'
p4119
aS'MegganRox'
p4120
aS'Boozenik'
p4121
aS'IAMJREAL'
p4122
aS'PrachiRai'
p4123
aS'BradDoll'
p4124
aS'kevinthegeek'
p4125
aS'therealkcyrus'
p4126
aS'ashleystyle'
p4127
aS'CalgaryVipers'
p4128
aS'Kaella_Carr'
p4129
aS'FCKH8'
p4130
aS'kplots'
p4131
aS'OhYeahOk'
p4132
aS'adamtheatheist'
p4133
aS'someartstudent'
p4134
aS'Sushant196'
p4135
aS'dcookfan08'
p4136
aS'ashleyluvzDC'
p4137
aS'KAM5AI'
p4138
aS'InetsilkEurope'
p4139
aS'LifeofAJeanius'
p4140
aS'DavidRocks08'
p4141
aS'1234DRP'
p4142
aS'eignavcook'
p4143
aS'TheCockerPiper'
p4144
aS'pipercookie'
p4145
aS'implu'
p4146
aS'jerk_dotcom'
p4147
aS'Sxy_MermaidLove'
p4148
aS'BABY_DUK3S'
p4149
aS'benrowley78'
p4150
aS'Komposer1911'
p4151
aS'YHIMP'
p4152
aS'LexLevi'
p4153
aS'KevinTir'
p4154
aS'TravisJCotton'
p4155
aS'JackieSparrow33'
p4156
aS'IsDat_Vercelive'
p4157
aS'GekkoHeadhunter'
p4158
aS'QuinncommaR'
p4159
aS'amichalska'
p4160
aS'Tara_ThorntonBT'
p4161
aS'ERMadvocate'
p4162
aS'jamillahmyers'
p4163
aS'lVVVVVl'
p4164
aS'InsaneFollowers'
p4165
aS'EXXXOTIC_BUNNY'
p4166
aS'worldhealthhub'
p4167
aS'JudahWorldChamp'
p4168
aS'IRREVERENT7'
p4169
aS'UNCLEMIKETWEETS'
p4170
aS'BestWorstAdvice'
p4171
aS'triMirror'
p4172
aS'i_Follow'
p4173
aS'LadyBoopz'
p4174
aS'JettPrescott'
p4175
aS'Evil_Vs_Good'
p4176
aS'faith_breaker'
p4177
aS'PearlJam'
p4178
aS'Jaymoola'
p4179
aS'FOLLOWS_EXPRESS'
p4180
aS'DeezDoubleDeez'
p4181
aS'Kes_OpenDoors'
p4182
aS'iSlapFuckBoyz'
p4183
aS'Urnotcute'
p4184
aS'Archaeologies_'
p4185
aS'Goals_Coach'
p4186
aS'andimarlon'
p4187
aS'KINGTUTBEATZ'
p4188
aS'sorinabu'
p4189
aS'htownzzzfinest'
p4190
aS'LAZEANDROYAL'
p4191
aS'tweet_lon'
p4192
aS'Brameriz'
p4193
aS'MDoTMancini'
p4194
aS'FuelOnline'
p4195
aS'iFiend4Cookies'
p4196
aS'MaNiaC_sM'
p4197
aS'GaryAdmitOne'
p4198
aS'SexualQuotes'
p4199
aS'TechGeek54'
p4200
aS'jonhutson'
p4201
aS'PinupPeepshop'
p4202
aS'Follow_Holla'
p4203
asg326
g3047
sg328
g329
(S'\x07\xda\x0b\x08\x16\x06!\x0b@\xcd'
p4204
tp4205
Rp4206
sa(dp4207
g2
(lp4208
(dp4209
S'favorited'
p4210
I00
sS'truncated'
p4211
I00
sS'text'
p4212
S'please vote @thedavidcook for "Sexiest Twitter" http://faxo.com/t'
p4213
sS'created_at'
p4214
S'Wed Nov 03 10:59:06 +0000 2010'
p4215
sS'retweeted'
p4216
I00
sS'coordinates'
p4217
NsS'in_reply_to_status_id'
p4218
NsS'place'
p4219
NsS'in_reply_to_screen_name'
p4220
NsS'retweet_count'
p4221
NsS'geo'
p4222
NsS'id'
p4223
I29560263166
sa(dp4224
S'favorited'
p4225
I00
sS'truncated'
p4226
I00
sS'text'
p4227
S'just voted @TheDavidCook for "American Idol of the Month" vote=&gt; http://faxo.com/t'
p4228
sS'created_at'
p4229
S'Sun Oct 31 20:43:06 +0000 2010'
p4230
sS'retweeted'
p4231
I00
sS'coordinates'
p4232
NsS'in_reply_to_status_id'
p4233
NsS'place'
p4234
NsS'in_reply_to_screen_name'
p4235
NsS'retweet_count'
p4236
NsS'geo'
p4237
NsS'id'
p4238
I29308909647
sa(dp4239
S'favorited'
p4240
I00
sS'truncated'
p4241
I00
sS'text'
p4242
S'vote @thedavidcook for "Mr. Twitter" http://faxo.com/t'
p4243
sS'created_at'
p4244
S'Sun Oct 31 20:42:05 +0000 2010'
p4245
sS'retweeted'
p4246
I00
sS'coordinates'
p4247
NsS'in_reply_to_status_id'
p4248
NsS'place'
p4249
NsS'in_reply_to_screen_name'
p4250
NsS'retweet_count'
p4251
NsS'geo'
p4252
NsS'id'
p4253
I29308841496
sa(dp4254
S'favorited'
p4255
I00
sS'truncated'
p4256
I00
sS'text'
p4257
S'vote @thedavidcook for "Musician of the Month" http://faxo.com/t'
p4258
sS'created_at'
p4259
S'Fri Oct 29 10:11:07 +0000 2010'
p4260
sS'retweeted'
p4261
I00
sS'coordinates'
p4262
NsS'in_reply_to_status_id'
p4263
NsS'place'
p4264
NsS'in_reply_to_screen_name'
p4265
NsS'retweet_count'
p4266
NsS'geo'
p4267
NsS'id'
p4268
I29073529728
sa(dp4269
S'favorited'
p4270
I00
sS'truncated'
p4271
I00
sS'text'
p4272
S'vote @TheDavidCook for "American Idol of the Month" http://faxo.com/t'
p4273
sS'created_at'
p4274
S'Fri Oct 29 10:10:06 +0000 2010'
p4275
sS'retweeted'
p4276
I00
sS'coordinates'
p4277
NsS'in_reply_to_status_id'
p4278
NsS'place'
p4279
NsS'in_reply_to_screen_name'
p4280
NsS'retweet_count'
p4281
NsS'geo'
p4282
NsS'id'
p4283
I29073473683
sa(dp4284
S'favorited'
p4285
I00
sS'truncated'
p4286
I00
sS'text'
p4287
S'vote @thedavidcook for "Mr. Twitter" http://faxo.com/t'
p4288
sS'created_at'
p4289
S'Fri Oct 29 10:09:08 +0000 2010'
p4290
sS'retweeted'
p4291
I00
sS'coordinates'
p4292
NsS'in_reply_to_status_id'
p4293
NsS'place'
p4294
NsS'in_reply_to_screen_name'
p4295
NsS'retweet_count'
p4296
NsS'geo'
p4297
NsS'id'
p4298
I29073419730
sa(dp4299
S'favorited'
p4300
I00
sS'truncated'
p4301
I00
sS'text'
p4302
S'please vote @thedavidcook for "Follow Me" http://faxo.com/t'
p4303
sS'created_at'
p4304
S'Tue Oct 26 11:03:06 +0000 2010'
p4305
sS'retweeted'
p4306
I00
sS'coordinates'
p4307
NsS'in_reply_to_status_id'
p4308
NsS'place'
p4309
NsS'in_reply_to_screen_name'
p4310
NsS'retweet_count'
p4311
NsS'geo'
p4312
NsS'id'
p4313
I28779301808
sa(dp4314
S'favorited'
p4315
I00
sS'truncated'
p4316
I00
sS'text'
p4317
S'just voted @thedavidcook for "Sexiest Twitter" *VOTE* http://faxo.com/t'
p4318
sS'created_at'
p4319
S'Tue Oct 26 11:02:07 +0000 2010'
p4320
sS'retweeted'
p4321
I00
sS'coordinates'
p4322
NsS'in_reply_to_status_id'
p4323
NsS'place'
p4324
NsS'in_reply_to_screen_name'
p4325
NsS'retweet_count'
p4326
NsS'geo'
p4327
NsS'id'
p4328
I28779239618
sa(dp4329
S'favorited'
p4330
I00
sS'truncated'
p4331
I00
sS'text'
p4332
S'please vote @thedavidcook for "Mr. Twitter" http://faxo.com/t'
p4333
sS'created_at'
p4334
S'Tue Oct 26 11:01:07 +0000 2010'
p4335
sS'retweeted'
p4336
I00
sS'coordinates'
p4337
NsS'in_reply_to_status_id'
p4338
NsS'place'
p4339
NsS'in_reply_to_screen_name'
p4340
NsS'retweet_count'
p4341
NsS'geo'
p4342
NsS'id'
p4343
I28779178386
sa(dp4344
S'favorited'
p4345
I00
sS'truncated'
p4346
I00
sS'text'
p4347
S'i voted @thedavidcook for "Musician of the Month" vote! http://faxo.com/t'
p4348
sS'created_at'
p4349
S'Fri Oct 22 12:01:07 +0000 2010'
p4350
sS'retweeted'
p4351
I00
sS'coordinates'
p4352
NsS'in_reply_to_status_id'
p4353
NsS'place'
p4354
NsS'in_reply_to_screen_name'
p4355
NsS'retweet_count'
p4356
NsS'geo'
p4357
NsS'id'
p4358
I28397349933
sa(dp4359
S'favorited'
p4360
I00
sS'truncated'
p4361
I00
sS'text'
p4362
S'just voted @thedavidcook for "Sexiest Twitter" *VOTE* http://faxo.com/t'
p4363
sS'created_at'
p4364
S'Fri Oct 22 12:00:09 +0000 2010'
p4365
sS'retweeted'
p4366
I00
sS'coordinates'
p4367
NsS'in_reply_to_status_id'
p4368
NsS'place'
p4369
NsS'in_reply_to_screen_name'
p4370
NsS'retweet_count'
p4371
NsS'geo'
p4372
NsS'id'
p4373
I28397275968
sa(dp4374
S'favorited'
p4375
I00
sS'truncated'
p4376
I00
sS'text'
p4377
S'i voted @thedavidcook for "Mr. Twitter" *VOTE* http://faxo.com/t'
p4378
sS'created_at'
p4379
S'Fri Oct 22 11:59:07 +0000 2010'
p4380
sS'retweeted'
p4381
I00
sS'coordinates'
p4382
NsS'in_reply_to_status_id'
p4383
NsS'place'
p4384
NsS'in_reply_to_screen_name'
p4385
NsS'retweet_count'
p4386
NsS'geo'
p4387
NsS'id'
p4388
I28397199636
sa(dp4389
S'favorited'
p4390
I00
sS'truncated'
p4391
I00
sS'text'
p4392
S'i voted @thedavidcook for "Musician of the Month" vote! http://faxo.com/t'
p4393
sS'created_at'
p4394
S'Sun Oct 17 18:42:06 +0000 2010'
p4395
sS'retweeted'
p4396
I00
sS'coordinates'
p4397
NsS'in_reply_to_status_id'
p4398
NsS'place'
p4399
NsS'in_reply_to_screen_name'
p4400
NsS'retweet_count'
p4401
NsS'geo'
p4402
NsS'id'
p4403
I27661757155
sa(dp4404
S'favorited'
p4405
I00
sS'truncated'
p4406
I00
sS'text'
p4407
S'just voted @TheDavidCook for "American Idol of the Month" *VOTE* http://faxo.com/t'
p4408
sS'created_at'
p4409
S'Sun Oct 17 18:41:07 +0000 2010'
p4410
sS'retweeted'
p4411
I00
sS'coordinates'
p4412
NsS'in_reply_to_status_id'
p4413
NsS'place'
p4414
NsS'in_reply_to_screen_name'
p4415
NsS'retweet_count'
p4416
NsS'geo'
p4417
NsS'id'
p4418
I27661690042
sa(dp4419
S'favorited'
p4420
I00
sS'truncated'
p4421
I00
sS'text'
p4422
S'i voted @thedavidcook for "Mr. Twitter" vote=&gt; http://faxo.com/t'
p4423
sS'created_at'
p4424
S'Sun Oct 17 18:40:14 +0000 2010'
p4425
sS'retweeted'
p4426
I00
sS'coordinates'
p4427
NsS'in_reply_to_status_id'
p4428
NsS'place'
p4429
NsS'in_reply_to_screen_name'
p4430
NsS'retweet_count'
p4431
NsS'geo'
p4432
NsS'id'
p4433
I27661629786
sa(dp4434
S'favorited'
p4435
I00
sS'truncated'
p4436
I00
sS'text'
p4437
S'i just voted @thedavidcook for "Mr. Twitter" *VOTE* http://faxo.com/t'
p4438
sS'created_at'
p4439
S'Mon Oct 11 16:49:23 +0000 2010'
p4440
sS'retweeted'
p4441
I00
sS'coordinates'
p4442
NsS'in_reply_to_status_id'
p4443
NsS'place'
p4444
NsS'in_reply_to_screen_name'
p4445
NsS'retweet_count'
p4446
NsS'geo'
p4447
NsS'id'
p4448
I27050813563
sa(dp4449
S'favorited'
p4450
I00
sS'truncated'
p4451
I00
sS'text'
p4452
S'please vote @thedavidcook for "Sexiest Twitter" http://faxo.com/t'
p4453
sS'created_at'
p4454
S'Thu Oct 07 11:12:05 +0000 2010'
p4455
sS'retweeted'
p4456
I00
sS'coordinates'
p4457
NsS'in_reply_to_status_id'
p4458
NsS'place'
p4459
NsS'in_reply_to_screen_name'
p4460
NsS'retweet_count'
p4461
NsS'geo'
p4462
NsS'id'
p4463
I26638843993
sa(dp4464
S'favorited'
p4465
I00
sS'truncated'
p4466
I00
sS'text'
p4467
S'i just voted @thedavidcook for "Mr. Twitter" vote=&gt; http://faxo.com/t'
p4468
sS'created_at'
p4469
S'Thu Oct 07 11:11:13 +0000 2010'
p4470
sS'retweeted'
p4471
I00
sS'coordinates'
p4472
NsS'in_reply_to_status_id'
p4473
NsS'place'
p4474
NsS'in_reply_to_screen_name'
p4475
NsS'retweet_count'
p4476
NsS'geo'
p4477
NsS'id'
p4478
I26638779887
sa(dp4479
S'favorited'
p4480
I00
sS'truncated'
p4481
I00
sS'text'
p4482
S'i just voted @TheDavidCook for "American Idol of the Month" *VOTE* http://faxo.com/t'
p4483
sS'created_at'
p4484
S'Tue Oct 05 11:42:05 +0000 2010'
p4485
sS'retweeted'
p4486
I00
sS'coordinates'
p4487
NsS'in_reply_to_status_id'
p4488
NsS'place'
p4489
NsS'in_reply_to_screen_name'
p4490
NsS'retweet_count'
p4491
NsS'geo'
p4492
NsS'id'
p4493
I26448487122
sa(dp4494
S'favorited'
p4495
I00
sS'truncated'
p4496
I00
sS'text'
p4497
S'i just voted @thedavidcook for "Musician of the Month" vote! http://faxo.com/t'
p4498
sS'created_at'
p4499
S'Tue Oct 05 11:41:05 +0000 2010'
p4500
sS'retweeted'
p4501
I00
sS'coordinates'
p4502
NsS'in_reply_to_status_id'
p4503
NsS'place'
p4504
NsS'in_reply_to_screen_name'
p4505
NsS'retweet_count'
p4506
NsS'geo'
p4507
NsS'id'
p4508
I26448427174
sasg274
(lp4509
S'T_Chobo'
p4510
aS'TheCockerPiper'
p4511
aS'LeeDeWyzeQuotes'
p4512
aS'shaunna21'
p4513
aS'hispresentpower'
p4514
aS'BamaCookieFan'
p4515
aS'xoDavidCookFans'
p4516
aS'Fancast'
p4517
aS'MKevinPruett'
p4518
aS'DavidCookQuotes'
p4519
aS'mattcarlson12'
p4520
aS'itfromvh1'
p4521
aS'TVSpoilersNews'
p4522
aS'sylb5503'
p4523
aS'ShanDoFans'
p4524
aS'angelprincess16'
p4525
aS'debrakay23'
p4526
aS'FoolsApril64'
p4527
aS'JaimeLovesDC'
p4528
aS'Sexy_Mermaid'
p4529
aS'DASHofficial'
p4530
aS'TomasH25'
p4531
aS'IdolZone'
p4532
aS'BreannESham'
p4533
aS'lvmyHBYnDC'
p4534
aS'latinalovescook'
p4535
aS'dcookfan08'
p4536
aS'BrazilianWNs'
p4537
aS'ChrisandAmyShow'
p4538
aS'cookiemomtenn'
p4539
aS'Iwasintoxicated'
p4540
aS'brocryer193'
p4541
aS'VoteWall'
p4542
aS'damjirdromelj'
p4543
aS'BlueLightTech'
p4544
aS'IdolNews'
p4545
aS'JoeNichols'
p4546
aS'DavidRocks08'
p4547
aS'UtterlyH'
p4548
aS'Quotweetions'
p4549
aS'Just4David'
p4550
aS'peterva23w'
p4551
aS'WeLoveSoapsTV'
p4552
aS'GoleBabe'
p4553
aS'1800CRIMETV'
p4554
aS'ladynsearch'
p4555
aS'NakedCeleb'
p4556
aS'hottiebbygina'
p4557
aS'lauragirl1326'
p4558
aS'twtcombat'
p4559
aS'Megan_R88'
p4560
aS'Jayyy__'
p4561
aS'dorissa755'
p4562
asg300
(lp4563
S'T_Chobo'
p4564
aS'TheCockerPiper'
p4565
aS'LeeDeWyzeQuotes'
p4566
aS'JuddApatow'
p4567
aS'Just4David'
p4568
aS'chursy'
p4569
aS'ShawnMichaels_'
p4570
aS'ActuallyNPH'
p4571
aS'ThisIsRobThomas'
p4572
aS'BamaCookieFan'
p4573
aS'xoDavidCookFans'
p4574
aS'ajcidol'
p4575
aS'noaheverett'
p4576
aS'TwitPic'
p4577
aS'shadowbuddies'
p4578
aS'WhitneyCummings'
p4579
aS'SFUCKINGJ'
p4580
aS'DCStalker'
p4581
aS'thesulk'
p4582
aS'KYLESPEEK'
p4583
aS'StephenAtHome'
p4584
aS'MKevinPruett'
p4585
aS'Fancast'
p4586
aS'IdolNews'
p4587
aS'pop2itnews'
p4588
aS'DavidCookQuotes'
p4589
aS'DaytimeRoyalty'
p4590
aS'TVSpoilersNews'
p4591
aS'thesoapcentral'
p4592
aS'TVShowsOnDVD'
p4593
aS'theawfultruth'
p4594
aS'DamnItsTrue'
p4595
aS'helloross'
p4596
aS'YahooTV'
p4597
aS'thejoelstein'
p4598
aS'CheersJeersTVG'
p4599
aS'EWAnnieBarrett'
p4600
aS'denisleary'
p4601
aS'galengering'
p4602
aS'SoapDigest'
p4603
aS'kellyurich'
p4604
aS'cougarslovecook'
p4605
aS'krittr517'
p4606
aS'sylb5503'
p4607
aS'blakeshelton'
p4608
aS'jenniegarth'
p4609
aS'AdrianneCurry'
p4610
aS'jakepavelka1'
p4611
aS'DohertyShannen'
p4612
aS'montyanderson'
p4613
aS'nealfingtiemann'
p4614
aS'TVWithoutPity'
p4615
aS'CraigyFerg'
p4616
aS'waynebrady'
p4617
aS'JimGaffigan'
p4618
aS'angelprincess16'
p4619
aS'ScottBaio'
p4620
aS'FoolsApril64'
p4621
aS'KidsCast'
p4622
aS'MontySaysShit'
p4623
aS'debrakay23'
p4624
aS'usatodayidol'
p4625
aS'ConanOBrien'
p4626
aS'SOAPnet'
p4627
aS'JaimeLovesDC'
p4628
aS'eignavcook'
p4629
aS'Sexy_Mermaid'
p4630
aS'usweekly'
p4631
aS'andyskib'
p4632
aS'idolsnow'
p4633
aS'Rogue_EJami'
p4634
aS'IdolZone'
p4635
aS'dcookfan08'
p4636
aS'Followtheblonde'
p4637
aS'cookiemomtenn'
p4638
aS'IdolTracker'
p4639
aS'conan_o_brien'
p4640
aS'faxo'
p4641
aS'BrazilianWNs'
p4642
aS'JaimeRKOFan'
p4643
aS'roflquiz'
p4644
aS'Zap2it'
p4645
aS'webstervictor'
p4646
aS'soaphunks'
p4647
aS'michaelianblack'
p4648
aS'DavidRocks08'
p4649
aS'ericmartsolf'
p4650
aS'iluvDCyes'
p4651
aS'Busyphilipps25'
p4652
aS'ChrisYoungMusic'
p4653
aS'VoteWall'
p4654
aS'THEDAILY10'
p4655
aS'BlueLightTech'
p4656
aS'mjsbigblog'
p4657
aS'DASHofficial'
p4658
aS'BustedGirls'
p4659
aS'jambajim'
p4660
aS'peopleschoice'
p4661
aS'Wolfiesmom'
p4662
aS'THGossip'
p4663
asg326
g4056
sg328
g329
(S'\x07\xda\x0b\x08\x16\x06.\x00[;'
p4664
tp4665
Rp4666
sa(dp4667
g2
(lp4668
(dp4669
S'favorited'
p4670
I00
sS'truncated'
p4671
I00
sS'text'
p4672
S'3am this morning i found out the shinbone is a device for finding furniture in a dark room'
p4673
sS'created_at'
p4674
S'Tue Nov 09 01:42:12 +0000 2010'
p4675
sS'retweeted'
p4676
I00
sS'coordinates'
p4677
NsS'in_reply_to_status_id'
p4678
NsS'place'
p4679
NsS'in_reply_to_screen_name'
p4680
NsS'retweet_count'
p4681
NsS'geo'
p4682
NsS'id'
p4683
I1811762152214528
sa(dp4684
S'favorited'
p4685
I00
sS'truncated'
p4686
I00
sS'text'
p4687
S'@Lulusaja thanks, nice time a year in Bali now, starting to get cold?'
p4688
sS'created_at'
p4689
S'Tue Nov 09 01:15:03 +0000 2010'
p4690
sS'retweeted'
p4691
I00
sS'coordinates'
p4692
NsS'in_reply_to_status_id'
p4693
I1803964089638913
sS'place'
p4694
NsS'in_reply_to_screen_name'
p4695
S'Lulusaja'
p4696
sS'retweet_count'
p4697
NsS'geo'
p4698
NsS'id'
p4699
I1804930197233664
sa(dp4700
S'favorited'
p4701
I00
sS'truncated'
p4702
I00
sS'text'
p4703
S'Good morning, another day, another dollar..hopefully. Lol coffee pleeeease...'
p4704
sS'created_at'
p4705
S'Tue Nov 09 01:09:23 +0000 2010'
p4706
sS'retweeted'
p4707
I00
sS'coordinates'
p4708
NsS'in_reply_to_status_id'
p4709
NsS'place'
p4710
NsS'in_reply_to_screen_name'
p4711
NsS'retweet_count'
p4712
NsS'geo'
p4713
NsS'id'
p4714
I1803502351294465
sa(dp4715
S'favorited'
p4716
I00
sS'truncated'
p4717
I00
sS'text'
p4718
S'#offline Ciao!'
p4719
sS'created_at'
p4720
S'Mon Nov 08 14:50:40 +0000 2010'
p4721
sS'retweeted'
p4722
I00
sS'coordinates'
p4723
NsS'in_reply_to_status_id'
p4724
NsS'place'
p4725
NsS'in_reply_to_screen_name'
p4726
NsS'retweet_count'
p4727
NsS'geo'
p4728
NsS'id'
p4729
I1647798814511104
sa(dp4730
S'favorited'
p4731
I00
sS'truncated'
p4732
I00
sS'text'
p4733
S'Ciao #offline'
p4734
sS'created_at'
p4735
S'Mon Nov 08 14:50:18 +0000 2010'
p4736
sS'retweeted'
p4737
I00
sS'coordinates'
p4738
NsS'in_reply_to_status_id'
p4739
NsS'place'
p4740
NsS'in_reply_to_screen_name'
p4741
NsS'retweet_count'
p4742
NsS'geo'
p4743
NsS'id'
p4744
I1647706254614528
sa(dp4745
S'favorited'
p4746
I00
sS'truncated'
p4747
I00
sS'text'
p4748
S"So over #CNN evening news where they begin with 'Good evening', and then proceed to tell you why it isn't.."
p4749
sS'created_at'
p4750
S'Mon Nov 08 13:30:37 +0000 2010'
p4751
sS'retweeted'
p4752
I00
sS'coordinates'
p4753
NsS'in_reply_to_status_id'
p4754
NsS'place'
p4755
NsS'in_reply_to_screen_name'
p4756
NsS'retweet_count'
p4757
NsS'geo'
p4758
NsS'id'
p4759
I1627654109270016
sa(dp4760
S'favorited'
p4761
I00
sS'truncated'
p4762
I00
sS'text'
p4763
S"RT What's the best #twitterapp for iPad?"
p4764
sS'created_at'
p4765
S'Mon Nov 08 12:58:28 +0000 2010'
p4766
sS'retweeted'
p4767
I00
sS'coordinates'
p4768
NsS'in_reply_to_status_id'
p4769
NsS'place'
p4770
NsS'in_reply_to_screen_name'
p4771
NsS'retweet_count'
p4772
NsS'geo'
p4773
NsS'id'
p4774
I1619563162636288
sa(dp4775
S'favorited'
p4776
I00
sS'truncated'
p4777
I00
sS'text'
p4778
S'Assertiveness is useless in a relationship where people stopped listening 2 each other long ago, Good old-fashioned punch-ups r the answer'
p4779
sS'created_at'
p4780
S'Mon Nov 08 08:39:14 +0000 2010'
p4781
sS'retweeted'
p4782
I00
sS'coordinates'
p4783
NsS'in_reply_to_status_id'
p4784
NsS'place'
p4785
NsS'in_reply_to_screen_name'
p4786
NsS'retweet_count'
p4787
NsS'geo'
p4788
NsS'id'
p4789
I1554325323124736
sa(dp4790
S'favorited'
p4791
I00
sS'truncated'
p4792
I00
sS'text'
p4793
S'fortune cookie from the laundry, Man who make love to girl on hill...he not on level'
p4794
sS'created_at'
p4795
S'Mon Nov 08 08:27:03 +0000 2010'
p4796
sS'retweeted'
p4797
I00
sS'coordinates'
p4798
NsS'in_reply_to_status_id'
p4799
NsS'place'
p4800
NsS'in_reply_to_screen_name'
p4801
NsS'retweet_count'
p4802
NsS'geo'
p4803
NsS'id'
p4804
I1551258573869056
sa(dp4805
S'favorited'
p4806
I00
sS'truncated'
p4807
I00
sS'text'
p4808
S'@GailGabrielle yep Its real..just google symbols, text, edit then copy & paste them in'
p4809
sS'created_at'
p4810
S'Mon Nov 08 05:17:58 +0000 2010'
p4811
sS'retweeted'
p4812
I00
sS'coordinates'
p4813
NsS'in_reply_to_status_id'
p4814
I1498701650460673
sS'place'
p4815
NsS'in_reply_to_screen_name'
p4816
S'GailGabrielle'
p4817
sS'retweet_count'
p4818
NsS'geo'
p4819
NsS'id'
p4820
I1503675558141952
sa(dp4821
S'favorited'
p4822
I00
sS'truncated'
p4823
I00
sS'text'
p4824
S"I'll tell you what, only when your in a rush god will do everything in his power to stop you from being at your meeting on time dam it"
p4825
sS'created_at'
p4826
S'Mon Nov 08 05:15:06 +0000 2010'
p4827
sS'retweeted'
p4828
I00
sS'coordinates'
p4829
NsS'in_reply_to_status_id'
p4830
NsS'place'
p4831
NsS'in_reply_to_screen_name'
p4832
NsS'retweet_count'
p4833
NsS'geo'
p4834
NsS'id'
p4835
I1502953424814080
sa(dp4836
S'favorited'
p4837
I00
sS'truncated'
p4838
I00
sS'text'
p4839
S"@Makin_Luv2_Cash that's always a good thing.."
p4840
sS'created_at'
p4841
S'Mon Nov 08 01:19:51 +0000 2010'
p4842
sS'retweeted'
p4843
I00
sS'coordinates'
p4844
NsS'in_reply_to_status_id'
p4845
I1443364520067074
sS'place'
p4846
NsS'in_reply_to_screen_name'
p4847
S'Makin_Luv2_Cash'
p4848
sS'retweet_count'
p4849
NsS'geo'
p4850
NsS'id'
p4851
I1443748978360320
sa(dp4852
S'favorited'
p4853
I00
sS'truncated'
p4854
I00
sS'text'
p4855
S'Good morning, rise & grind..'
p4856
sS'created_at'
p4857
S'Mon Nov 08 00:49:26 +0000 2010'
p4858
sS'retweeted'
p4859
I00
sS'coordinates'
p4860
NsS'in_reply_to_status_id'
p4861
NsS'place'
p4862
NsS'in_reply_to_screen_name'
p4863
NsS'retweet_count'
p4864
NsS'geo'
p4865
NsS'id'
p4866
I1436095476670464
sa(dp4867
S'favorited'
p4868
I00
sS'truncated'
p4869
I00
sS'text'
p4870
S'stay classy tweetville #OFFLINE will holla back everyone tomorrow #TeamFollowBack #InstantFollowBack #TFB #MustFollow #Follow #500ADay'
p4871
sS'created_at'
p4872
S'Sun Nov 07 15:06:32 +0000 2010'
p4873
sS'retweeted'
p4874
I00
sS'coordinates'
p4875
NsS'in_reply_to_status_id'
p4876
NsS'place'
p4877
NsS'in_reply_to_screen_name'
p4878
NsS'retweet_count'
p4879
NsS'geo'
p4880
NsS'id'
p4881
I1289405830529024
sa(dp4882
S'favorited'
p4883
I00
sS'truncated'
p4884
I00
sS'text'
p4885
S'@SashaaDGAF repetitive'
p4886
sS'created_at'
p4887
S'Sun Nov 07 13:51:56 +0000 2010'
p4888
sS'retweeted'
p4889
I00
sS'coordinates'
p4890
NsS'in_reply_to_status_id'
p4891
I1270253648617472
sS'place'
p4892
NsS'in_reply_to_screen_name'
p4893
S'SashaaDGAF'
p4894
sS'retweet_count'
p4895
NsS'geo'
p4896
NsS'id'
p4897
I1270631500873728
sa(dp4898
S'favorited'
p4899
I00
sS'truncated'
p4900
I00
sS'text'
p4901
S"8 weeks till #NYE what's everyone doing?"
p4902
sS'created_at'
p4903
S'Sun Nov 07 13:37:25 +0000 2010'
p4904
sS'retweeted'
p4905
I00
sS'coordinates'
p4906
NsS'in_reply_to_status_id'
p4907
NsS'place'
p4908
NsS'in_reply_to_screen_name'
p4909
NsS'retweet_count'
p4910
NsS'geo'
p4911
NsS'id'
p4912
I1266977997852672
sa(dp4913
S'favorited'
p4914
I00
sS'truncated'
p4915
I00
sS'text'
p4916
S"@MellyWasHere lol well kids get a pass because they don't know any better.."
p4917
sS'created_at'
p4918
S'Sun Nov 07 13:11:04 +0000 2010'
p4919
sS'retweeted'
p4920
I00
sS'coordinates'
p4921
NsS'in_reply_to_status_id'
p4922
I1256334896930816
sS'place'
p4923
NsS'in_reply_to_screen_name'
p4924
S'MellyWasHere'
p4925
sS'retweet_count'
p4926
NsS'geo'
p4927
NsS'id'
p4928
I1260346790645760
sa(dp4929
S'favorited'
p4930
I00
sS'truncated'
p4931
I00
sS'text'
p4932
S"i didn't think i would b into Gordon Ramsay's #MASTERCHEF US, but so far so good..a lot better than the other crummy reality Shows that r on"
p4933
sS'created_at'
p4934
S'Sun Nov 07 12:44:11 +0000 2010'
p4935
sS'retweeted'
p4936
I00
sS'coordinates'
p4937
NsS'in_reply_to_status_id'
p4938
NsS'place'
p4939
NsS'in_reply_to_screen_name'
p4940
NsS'retweet_count'
p4941
NsS'geo'
p4942
NsS'id'
p4943
I1253582171021312
sa(dp4944
S'favorited'
p4945
I00
sS'truncated'
p4946
I00
sS'text'
p4947
S'so much negativity on my #TL, everyone chill..'
p4948
sS'created_at'
p4949
S'Sun Nov 07 12:25:57 +0000 2010'
p4950
sS'retweeted'
p4951
I00
sS'coordinates'
p4952
NsS'in_reply_to_status_id'
p4953
NsS'place'
p4954
NsS'in_reply_to_screen_name'
p4955
NsS'retweet_count'
p4956
NsS'geo'
p4957
NsS'id'
p4958
I1248991949889536
sa(dp4959
S'favorited'
p4960
I00
sS'truncated'
p4961
I00
sS'text'
p4962
S'@MoneBankss no one!! really..'
p4963
sS'created_at'
p4964
S'Sun Nov 07 12:23:30 +0000 2010'
p4965
sS'retweeted'
p4966
I00
sS'coordinates'
p4967
NsS'in_reply_to_status_id'
p4968
I1247713605718018
sS'place'
p4969
NsS'in_reply_to_screen_name'
p4970
S'MoneBankss'
p4971
sS'retweet_count'
p4972
NsS'geo'
p4973
NsS'id'
p4974
I1248376876179456
sasg274
(lp4975
S'sparkie5150'
p4976
aS'RandyFloss'
p4977
aS'AniRhythm'
p4978
aS'bieberfannJB'
p4979
aS'nomads_westend'
p4980
aS'Team_Follow_BR'
p4981
aS'BrentniBillionz'
p4982
aS'unique_shante'
p4983
aS'itsMeJeFFpoie20'
p4984
aS'ModelLondonLB'
p4985
aS'elo_digital'
p4986
aS'xXprettYAicahXx'
p4987
aS'CappX'
p4988
aS'duhdustin'
p4989
aS'TarzansLoveSpot'
p4990
aS'I_Follow_back__'
p4991
aS'MadyAnais'
p4992
aS'Typlo'
p4993
aS'The_DreamNet'
p4994
aS'money_boost'
p4995
aS'awonderfulllife'
p4996
aS'Trabi500'
p4997
aS'beautysession'
p4998
aS'PearlieLaDollie'
p4999
aS'phila_lex'
p5000
aS'the_funky_minx'
p5001
aS'maxbrinks'
p5002
aS'TheRealShexy'
p5003
aS'kbgoldsavings'
p5004
aS'FaniiOfiicial'
p5005
aS'Lemargriffin9'
p5006
aS'perushop24'
p5007
aS'Kayleighh_'
p5008
aS'therealmsjonez'
p5009
aS'Keniajwv'
p5010
aS'Dondonz_cboz'
p5011
aS'pereira_777'
p5012
aS'arun_1991'
p5013
aS'SoDopeBoiiFresh'
p5014
aS'msk_Mash'
p5015
aS'keirjahziel'
p5016
aS'MizzSocial'
p5017
aS'MYLIFESASHOW'
p5018
aS'Iluuv_Paramore'
p5019
aS'STATEFARMSUCKS3'
p5020
aS'pipeythewelder'
p5021
aS'ReddRidinqHood'
p5022
aS'weinzo'
p5023
aS'Olympiacae'
p5024
aS'DBDiPPediNdOpE'
p5025
aS'Strational'
p5026
aS'DoubletakeMusic'
p5027
aS'GailGabrielle'
p5028
aS'BlogdoParrini'
p5029
aS'itsmelonyking'
p5030
aS'HypeBroadcast'
p5031
aS'cheap_domains'
p5032
aS'InquisArchiver'
p5033
aS'efforasss'
p5034
aS'mYudhi'
p5035
aS'THE500ADAY'
p5036
aS'Yung_Wreckless'
p5037
aS'RodUrban'
p5038
aS'Free_lancerr'
p5039
aS'Chubby_Thighz'
p5040
aS'EXIT8THESAVAGE'
p5041
aS'Kopoe1080p'
p5042
aS'xxLady_Greenxx'
p5043
aS'JokerFollowBack'
p5044
aS'THEREALDJFADE'
p5045
aS'Dem0craticParty'
p5046
aS'DenverOnTheWeb'
p5047
aS'richm3att'
p5048
aS'evamiranda2006'
p5049
aS'Donkhafa'
p5050
aS'GaryEmeugis'
p5051
aS'drebeatz91'
p5052
aS'primosquad'
p5053
aS'TeamNoShame'
p5054
aS'Huithiang'
p5055
aS'BJordan84'
p5056
aS'coovents'
p5057
aS'iDamienIII'
p5058
aS'ChocOlatebOy426'
p5059
aS'longhummer'
p5060
aS'fire4547'
p5061
aS'CoachNoteBook'
p5062
aS'YouLuvNikki'
p5063
aS'longcadillac'
p5064
aS'TABOUTMF'
p5065
aS'Jadore_Chennel'
p5066
aS'zbiglab'
p5067
aS'MizBubby'
p5068
aS'redbonecutie404'
p5069
aS'followback_tig'
p5070
aS'michelle_andrei'
p5071
aS'AmazinTheGreat'
p5072
aS'RickRude_Da_God'
p5073
aS'coloredcowboy'
p5074
aS'DanielStoicaTax'
p5075
asg300
(lp5076
S'tari_muntasir'
p5077
aS'kbgoldsavings'
p5078
aS'awonderfulllife'
p5079
aS'elo_digital'
p5080
aS'MizzSocial'
p5081
aS'nomads_westend'
p5082
aS'AdamMakesMusic'
p5083
aS'Donkhafa'
p5084
aS'ModelLondonLB'
p5085
aS'Breyon_Blaze'
p5086
aS'phila_lex'
p5087
aS'Yung_Twit'
p5088
aS'__Sephiroth'
p5089
aS'maxbrinks'
p5090
aS'classydani23'
p5091
aS'TSaints'
p5092
aS'NickoTaylor88'
p5093
aS'Team_Follow_BR'
p5094
aS'pipeythewelder'
p5095
aS'Olympiacae'
p5096
aS'TeamNoShame'
p5097
aS'i_Follow'
p5098
aS'evamiranda2006'
p5099
aS'iDamienIII'
p5100
aS'valdezcampbell'
p5101
aS'drebeatz91'
p5102
aS'Yung_Wreckless'
p5103
aS'Huithiang'
p5104
aS'EXIT8THESAVAGE'
p5105
aS'RodUrban'
p5106
aS'zbiglab'
p5107
aS'renaaws'
p5108
aS'Axel_Rj'
p5109
aS'DevinDevon'
p5110
aS'ChristensenBill'
p5111
aS'ruthprasetya'
p5112
aS'anubhapur'
p5113
aS'weinzo'
p5114
aS'Chandra_diary'
p5115
aS'Dondonz_cboz'
p5116
aS'Mr_Clutch_23'
p5117
aS'NewB88'
p5118
aS'rischalicious'
p5119
aS'_PAiGERAWR'
p5120
aS'SoDopeBoiiFresh'
p5121
aS'ReddRidinqHood'
p5122
aS'DotTheDon'
p5123
aS'New_MOBY'
p5124
aS'GerryLambert'
p5125
aS'inachohan'
p5126
aS'SooWavySmith'
p5127
aS'DBDiPPediNdOpE'
p5128
aS'ImNotAHuManBeiN'
p5129
aS'MadyAnais'
p5130
aS'Typlo'
p5131
aS'JMacTeam'
p5132
aS'uniquecrochet'
p5133
aS'Iluuv_Paramore'
p5134
aS'TarzansLoveSpot'
p5135
aS'LadyVixen26'
p5136
aS'sneakerfiend93'
p5137
aS'FaniiOfiicial'
p5138
aS'thatboyCB'
p5139
aS'itzASHBASHnow'
p5140
aS'laser_eyed_T'
p5141
aS'Swift_Fetti'
p5142
aS'KeySha_Airborne'
p5143
aS'torysmithxx'
p5144
aS'Papzromeo'
p5145
aS'Trabi500'
p5146
aS'CappX'
p5147
aS'PearlieLaDollie'
p5148
aS'Jared_357'
p5149
aS'ChocOlatebOy426'
p5150
aS'demigodak'
p5151
aS'MizzK501'
p5152
aS'TrayBent'
p5153
aS'mrbobbyls'
p5154
aS'lucciie15'
p5155
aS'Denzcy'
p5156
aS'sarina_beauty'
p5157
aS'beautysession'
p5158
aS'therealmsjonez'
p5159
aS'cutannisaa'
p5160
aS'ailswattatsix'
p5161
aS'farramnissa'
p5162
aS'LianaNoviani'
p5163
aS'Abelliz'
p5164
aS'Nidyadinanty'
p5165
aS'unique_shante'
p5166
aS'keirjahziel'
p5167
aS'viaio'
p5168
aS'Carlos_A_L'
p5169
aS'Kayleighh_'
p5170
aS'valaveritas'
p5171
aS'FattGFlocka'
p5172
aS'BIG_BANK_BRIL'
p5173
aS'I_Follow_back__'
p5174
aS'pereira_777'
p5175
aS'bieberfannJB'
p5176
asg326
g4052
sg328
g329
(S'\x07\xda\x0b\x08\x16\x067\n\x8f!'
p5177
tp5178
Rp5179
sa.