(lp0
(dp1
S'tweets'
p2
(lp3
(dp4
S'favorited'
p5
I00
sS'truncated'
p6
I00
sS'text'
p7
S"Only 2 countries haven't ratified Convention on the Rights of the Child (Anti Child Soldiers) - US and Somalia. http://tinyurl.com/3ylpxf3"
p8
sS'created_at'
p9
S'Mon Jun 14 16:25:56 +0000 2010'
p10
sS'retweeted'
p11
I00
sS'coordinates'
p12
NsS'in_reply_to_status_id'
p13
NsS'place'
p14
NsS'in_reply_to_screen_name'
p15
NsS'retweet_count'
p16
NsS'geo'
p17
NsS'id'
p18
I16159915668
sa(dp19
S'favorited'
p20
I00
sS'truncated'
p21
I00
sS'text'
p22
S'http://www.hpae.org/newsroom/articles/20100518_letter'
p23
sS'created_at'
p24
S'Fri Jun 11 19:29:25 +0000 2010'
p25
sS'retweeted'
p26
I00
sS'coordinates'
p27
NsS'in_reply_to_status_id'
p28
NsS'place'
p29
NsS'in_reply_to_screen_name'
p30
NsS'retweet_count'
p31
NsS'geo'
p32
NsS'id'
p33
I15950818516
sa(dp34
S'favorited'
p35
I00
sS'truncated'
p36
I00
sS'text'
p37
S'Janitors should be rebranded "entropy fighters". Way cooler.'
p38
sS'created_at'
p39
S'Thu May 27 17:59:09 +0000 2010'
p40
sS'retweeted'
p41
I00
sS'coordinates'
p42
NsS'in_reply_to_status_id'
p43
NsS'place'
p44
NsS'in_reply_to_screen_name'
p45
NsS'retweet_count'
p46
NsS'geo'
p47
NsS'id'
p48
I14850252677
sa(dp49
S'favorited'
p50
I00
sS'truncated'
p51
I00
sS'text'
p52
S'http://www.google.com'
p53
sS'created_at'
p54
S'Fri May 21 15:18:06 +0000 2010'
p55
sS'retweeted'
p56
I00
sS'coordinates'
p57
NsS'in_reply_to_status_id'
p58
NsS'place'
p59
NsS'in_reply_to_screen_name'
p60
NsS'retweet_count'
p61
NsS'geo'
p62
NsS'id'
p63
I14434346927
sa(dp64
S'favorited'
p65
I00
sS'truncated'
p66
I00
sS'text'
p67
S'Even struggling Haitian farmers still seem to value ethics&safety over cost&ease. Fight the man! http://tinyurl.com/2bd7qxd #IH8Monsanto'
p68
sS'created_at'
p69
S'Wed May 19 18:15:36 +0000 2010'
p70
sS'retweeted'
p71
I00
sS'coordinates'
p72
NsS'in_reply_to_status_id'
p73
NsS'place'
p74
NsS'in_reply_to_screen_name'
p75
NsS'retweet_count'
p76
NsS'geo'
p77
NsS'id'
p78
I14308708643
sa(dp79
S'favorited'
p80
I00
sS'truncated'
p81
I00
sS'text'
p82
S'There are, perhaps, aspects of government more important than the public policy of playgrounds, but I doubt it: http://tinyurl.com/27rbapm'
p83
sS'created_at'
p84
S'Mon May 17 22:22:47 +0000 2010'
p85
sS'retweeted'
p86
I00
sS'coordinates'
p87
NsS'in_reply_to_status_id'
p88
NsS'place'
p89
NsS'in_reply_to_screen_name'
p90
NsS'retweet_count'
p91
NsS'geo'
p92
NsS'id'
p93
I14187103891
sa(dp94
S'favorited'
p95
I00
sS'truncated'
p96
I00
sS'text'
p97
S'Oh! The moon is science too! Now I get it. http://tinyurl.com/22qk39z'
p98
sS'created_at'
p99
S'Fri May 14 20:24:53 +0000 2010'
p100
sS'retweeted'
p101
I00
sS'coordinates'
p102
NsS'in_reply_to_status_id'
p103
NsS'place'
p104
NsS'in_reply_to_screen_name'
p105
NsS'retweet_count'
p106
NsS'geo'
p107
NsS'id'
p108
I13995665866
sa(dp109
S'favorited'
p110
I00
sS'truncated'
p111
I00
sS'text'
p112
S'"All contributions by corporations to any political committee or for any political purpose should be forbidden by law." tinyurl.com/23u8stc'
p113
sS'created_at'
p114
S'Wed May 12 21:31:20 +0000 2010'
p115
sS'retweeted'
p116
I00
sS'coordinates'
p117
NsS'in_reply_to_status_id'
p118
NsS'place'
p119
NsS'in_reply_to_screen_name'
p120
NsS'retweet_count'
p121
NsS'geo'
p122
NsS'id'
p123
I13873054150
sa(dp124
S'favorited'
p125
I00
sS'truncated'
p126
I00
sS'text'
p127
S'Happy Holidays. http://tinyurl.com/y5jz4yf'
p128
sS'created_at'
p129
S'Tue Apr 20 22:09:39 +0000 2010'
p130
sS'retweeted'
p131
I00
sS'coordinates'
p132
NsS'in_reply_to_status_id'
p133
NsS'place'
p134
NsS'in_reply_to_screen_name'
p135
NsS'retweet_count'
p136
NsS'geo'
p137
NsS'id'
p138
I12540191931
sa(dp139
S'favorited'
p140
I00
sS'truncated'
p141
I00
sS'text'
p142
S"'Worthwhile' is an interesting word that should be considered more frequently."
p143
sS'created_at'
p144
S'Tue Nov 10 19:28:45 +0000 2009'
p145
sS'retweeted'
p146
I00
sS'coordinates'
p147
NsS'in_reply_to_status_id'
p148
NsS'place'
p149
NsS'in_reply_to_screen_name'
p150
NsS'retweet_count'
p151
NsS'geo'
p152
NsS'id'
p153
I5596931280
sa(dp154
S'favorited'
p155
I00
sS'truncated'
p156
I00
sS'text'
p157
S'"But where does it stop? Who can we shoot? I don\'t aim to starve to death before I kill the man that\'s starving me."'
p158
sS'created_at'
p159
S'Fri Oct 30 13:57:54 +0000 2009'
p160
sS'retweeted'
p161
I00
sS'coordinates'
p162
NsS'in_reply_to_status_id'
p163
NsS'place'
p164
NsS'in_reply_to_screen_name'
p165
NsS'retweet_count'
p166
NsS'geo'
p167
NsS'id'
p168
I5287619538
sa(dp169
S'favorited'
p170
I00
sS'truncated'
p171
I00
sS'text'
p172
V"Life...was quite simple. You wanted a good time; \u2019they\u2019, ...wanted to stop you having it; you broke the rules as best you could."
p173
sS'created_at'
p174
S'Thu Oct 22 20:32:01 +0000 2009'
p175
sS'retweeted'
p176
I00
sS'coordinates'
p177
NsS'in_reply_to_status_id'
p178
NsS'place'
p179
NsS'in_reply_to_screen_name'
p180
NsS'retweet_count'
p181
NsS'geo'
p182
NsS'id'
p183
I5078609684
sa(dp184
S'favorited'
p185
I00
sS'truncated'
p186
I00
sS'text'
p187
S'Glass coffee table = new huge white board!'
p188
sS'created_at'
p189
S'Tue Oct 13 12:36:54 +0000 2009'
p190
sS'retweeted'
p191
I00
sS'coordinates'
p192
NsS'in_reply_to_status_id'
p193
NsS'place'
p194
NsS'in_reply_to_screen_name'
p195
NsS'retweet_count'
p196
NsS'geo'
p197
NsS'id'
p198
I4833764348
sa(dp199
S'favorited'
p200
I00
sS'truncated'
p201
I00
sS'text'
p202
S'"Alis volat propriis". Back on the 1st.'
p203
sS'created_at'
p204
S'Wed Aug 26 08:12:28 +0000 2009'
p205
sS'retweeted'
p206
I00
sS'coordinates'
p207
NsS'in_reply_to_status_id'
p208
NsS'place'
p209
NsS'in_reply_to_screen_name'
p210
NsS'retweet_count'
p211
NsS'geo'
p212
NsS'id'
p213
I3552757907
sa(dp214
S'favorited'
p215
I00
sS'truncated'
p216
I00
sS'text'
p217
S'chillin with the bro in the natty'
p218
sS'created_at'
p219
S'Sun Aug 23 06:17:57 +0000 2009'
p220
sS'retweeted'
p221
I00
sS'coordinates'
p222
NsS'in_reply_to_status_id'
p223
NsS'place'
p224
NsS'in_reply_to_screen_name'
p225
NsS'retweet_count'
p226
NsS'geo'
p227
NsS'id'
p228
I3487597033
sa(dp229
S'favorited'
p230
I00
sS'truncated'
p231
I00
sS'text'
p232
S'Twitter may or may not be the future. Who will win?'
p233
sS'created_at'
p234
S'Thu Aug 20 05:14:49 +0000 2009'
p235
sS'retweeted'
p236
I00
sS'coordinates'
p237
NsS'in_reply_to_status_id'
p238
NsS'place'
p239
NsS'in_reply_to_screen_name'
p240
NsS'retweet_count'
p241
NsS'geo'
p242
NsS'id'
p243
I3421861529
sa(dp244
S'favorited'
p245
I00
sS'truncated'
p246
I00
sS'text'
p247
S'I am employed! Word.'
p248
sS'created_at'
p249
S'Fri Aug 14 20:42:35 +0000 2009'
p250
sS'retweeted'
p251
I00
sS'coordinates'
p252
NsS'in_reply_to_status_id'
p253
NsS'place'
p254
NsS'in_reply_to_screen_name'
p255
NsS'retweet_count'
p256
NsS'geo'
p257
NsS'id'
p258
I3315217955
sa(dp259
S'favorited'
p260
I00
sS'truncated'
p261
I00
sS'text'
p262
S'http://tr.im/wprl - The Best.'
p263
sS'created_at'
p264
S'Fri Aug 14 17:02:07 +0000 2009'
p265
sS'retweeted'
p266
I00
sS'coordinates'
p267
NsS'in_reply_to_status_id'
p268
NsS'place'
p269
NsS'in_reply_to_screen_name'
p270
NsS'retweet_count'
p271
NsS'geo'
p272
NsS'id'
p273
I3311097567
sasS'followers'
p274
(lp275
S'blarrhug'
p276
aS'chiwendysdeals'
p277
aS'jonahshai'
p278
aS'Ben_Segal'
p279
aS'lrmayer'
p280
aS'real_k_shimmin'
p281
aS'Lisa_Marie75'
p282
aS'UnopenedCatBox'
p283
aS'Pitts_1652'
p284
aS'JeriArnold332'
p285
aS'ElizaRocha914'
p286
aS'rootsreachdown'
p287
aS'zazman'
p288
aS'nuss08'
p289
aS'JennisTheMenace'
p290
aS'philrsquared'
p291
aS'benlarrison'
p292
aS'mikegoldstein1'
p293
aS'dlinder89'
p294
aS'cckeevan'
p295
aS'brandon_fu22755'
p296
aS'matherts'
p297
aS'iansoy'
p298
aS'NU_Sports'
p299
asS'friends'
p300
(lp301
S'blarrhug'
p302
aS'chiwendysdeals'
p303
aS'JimGaffigan'
p304
aS'lakeviewaction'
p305
aS'GrouponNUEv'
p306
aS'real_k_shimmin'
p307
aS'LizzyHandler'
p308
aS'lrmayer'
p309
aS'NUJTE'
p310
aS'shitmydadsays'
p311
aS'Hillel_Jobs'
p312
aS'noahlevin'
p313
aS'NedNedNedNed'
p314
aS'madsciencetist'
p315
aS'TheChern'
p316
aS'nuss08'
p317
aS'JennisTheMenace'
p318
aS'philrsquared'
p319
aS'benlarrison'
p320
aS'dlinder89'
p321
aS'mikegoldstein1'
p322
aS'rootsreachdown'
p323
aS'iansoy'
p324
aS'matherts'
p325
asS'screen_name'
p326
S'SereneSquid'
p327
sS'timestamp'
p328
cdatetime
datetime
p329
(S'\x07\xda\x0b\x08\x14/!\x0c\x01@'
p330
tp331
Rp332
sa(dp333
g2
(lp334
(dp335
S'favorited'
p336
I00
sS'truncated'
p337
I00
sS'text'
p338
S'Final NW 21, PSU 35'
p339
sS'created_at'
p340
S'Sat Nov 06 22:58:34 +0000 2010'
p341
sS'retweeted'
p342
I00
sS'coordinates'
p343
NsS'in_reply_to_status_id'
p344
NsS'place'
p345
NsS'in_reply_to_screen_name'
p346
NsS'retweet_count'
p347
NsS'geo'
p348
NsS'id'
p349
I1045806467518464
sa(dp350
S'favorited'
p351
I00
sS'truncated'
p352
I00
sS'text'
p353
S'PSU PAT 11:38 4Q, NW 21, PSU 35'
p354
sS'created_at'
p355
S'Sat Nov 06 22:25:22 +0000 2010'
p356
sS'retweeted'
p357
I00
sS'coordinates'
p358
NsS'in_reply_to_status_id'
p359
NsS'place'
p360
NsS'in_reply_to_screen_name'
p361
NsS'retweet_count'
p362
NsS'geo'
p363
NsS'id'
p364
I1037452194086912
sa(dp365
S'favorited'
p366
I00
sS'truncated'
p367
I00
sS'text'
p368
S'PSU Passing TD 11:38 4Q, NW 21, PSU 34'
p369
sS'created_at'
p370
S'Sat Nov 06 22:24:04 +0000 2010'
p371
sS'retweeted'
p372
I00
sS'coordinates'
p373
NsS'in_reply_to_status_id'
p374
NsS'place'
p375
NsS'in_reply_to_screen_name'
p376
NsS'retweet_count'
p377
NsS'geo'
p378
NsS'id'
p379
I1037126384754688
sa(dp380
S'favorited'
p381
I00
sS'truncated'
p382
I00
sS'text'
p383
S'PSU PAT 1:31 3Q, NW 21, PSU 28'
p384
sS'created_at'
p385
S'Sat Nov 06 22:10:44 +0000 2010'
p386
sS'retweeted'
p387
I00
sS'coordinates'
p388
NsS'in_reply_to_status_id'
p389
NsS'place'
p390
NsS'in_reply_to_screen_name'
p391
NsS'retweet_count'
p392
NsS'geo'
p393
NsS'id'
p394
I1033768152342528
sa(dp395
S'favorited'
p396
I00
sS'truncated'
p397
I00
sS'text'
p398
S'PSU Rushing TD 1:31 3Q, NW 21, PSU 27'
p399
sS'created_at'
p400
S'Sat Nov 06 22:10:07 +0000 2010'
p401
sS'retweeted'
p402
I00
sS'coordinates'
p403
NsS'in_reply_to_status_id'
p404
NsS'place'
p405
NsS'in_reply_to_screen_name'
p406
NsS'retweet_count'
p407
NsS'geo'
p408
NsS'id'
p409
I1033614015864833
sa(dp410
S'favorited'
p411
I00
sS'truncated'
p412
I00
sS'text'
p413
S'PSU PAT 5:43 3Q, NW 21, PSU 21'
p414
sS'created_at'
p415
S'Sat Nov 06 21:58:23 +0000 2010'
p416
sS'retweeted'
p417
I00
sS'coordinates'
p418
NsS'in_reply_to_status_id'
p419
NsS'place'
p420
NsS'in_reply_to_screen_name'
p421
NsS'retweet_count'
p422
NsS'geo'
p423
NsS'id'
p424
I1030660848361472
sa(dp425
S'favorited'
p426
I00
sS'truncated'
p427
I00
sS'text'
p428
S'PSU Passing TD 5:43 3Q, NW 21, PSU 20'
p429
sS'created_at'
p430
S'Sat Nov 06 21:57:53 +0000 2010'
p431
sS'retweeted'
p432
I00
sS'coordinates'
p433
NsS'in_reply_to_status_id'
p434
NsS'place'
p435
NsS'in_reply_to_screen_name'
p436
NsS'retweet_count'
p437
NsS'geo'
p438
NsS'id'
p439
I1030536097177601
sa(dp440
S'favorited'
p441
I00
sS'truncated'
p442
I00
sS'text'
p443
S'PSU PAT 9:03 3Q, NW 21, PSU 14'
p444
sS'created_at'
p445
S'Sat Nov 06 21:47:13 +0000 2010'
p446
sS'retweeted'
p447
I00
sS'coordinates'
p448
NsS'in_reply_to_status_id'
p449
NsS'place'
p450
NsS'in_reply_to_screen_name'
p451
NsS'retweet_count'
p452
NsS'geo'
p453
NsS'id'
p454
I1027852224962560
sa(dp455
S'favorited'
p456
I00
sS'truncated'
p457
I00
sS'text'
p458
S'PSU Passing TD 9:03 3Q, NW 21, PSU 13'
p459
sS'created_at'
p460
S'Sat Nov 06 21:47:03 +0000 2010'
p461
sS'retweeted'
p462
I00
sS'coordinates'
p463
NsS'in_reply_to_status_id'
p464
NsS'place'
p465
NsS'in_reply_to_screen_name'
p466
NsS'retweet_count'
p467
NsS'geo'
p468
NsS'id'
p469
I1027809447256064
sa(dp470
S'favorited'
p471
I00
sS'truncated'
p472
I00
sS'text'
p473
S'Halftime NW 21, PSU 7'
p474
sS'created_at'
p475
S'Sat Nov 06 21:14:24 +0000 2010'
p476
sS'retweeted'
p477
I00
sS'coordinates'
p478
NsS'in_reply_to_status_id'
p479
NsS'place'
p480
NsS'in_reply_to_screen_name'
p481
NsS'retweet_count'
p482
NsS'geo'
p483
NsS'id'
p484
I1019593376145408
sa(dp485
S'favorited'
p486
I00
sS'truncated'
p487
I00
sS'text'
p488
S'PSU PAT 0:03 2Q, NW 21, PSU 7'
p489
sS'created_at'
p490
S'Sat Nov 06 21:12:33 +0000 2010'
p491
sS'retweeted'
p492
I00
sS'coordinates'
p493
NsS'in_reply_to_status_id'
p494
NsS'place'
p495
NsS'in_reply_to_screen_name'
p496
NsS'retweet_count'
p497
NsS'geo'
p498
NsS'id'
p499
I1019127728701440
sa(dp500
S'favorited'
p501
I00
sS'truncated'
p502
I00
sS'text'
p503
S'PSU Passing TD 0:03 2Q, NW 21, PSU 6'
p504
sS'created_at'
p505
S'Sat Nov 06 21:10:05 +0000 2010'
p506
sS'retweeted'
p507
I00
sS'coordinates'
p508
NsS'in_reply_to_status_id'
p509
NsS'place'
p510
NsS'in_reply_to_screen_name'
p511
NsS'retweet_count'
p512
NsS'geo'
p513
NsS'id'
p514
I1018505788915712
sa(dp515
S'favorited'
p516
I00
sS'truncated'
p517
I00
sS'text'
p518
S'NW PAT 0:56 2Q, NW 21, PSU 0'
p519
sS'created_at'
p520
S'Sat Nov 06 20:59:35 +0000 2010'
p521
sS'retweeted'
p522
I00
sS'coordinates'
p523
NsS'in_reply_to_status_id'
p524
NsS'place'
p525
NsS'in_reply_to_screen_name'
p526
NsS'retweet_count'
p527
NsS'geo'
p528
NsS'id'
p529
I1015862244937729
sa(dp530
S'favorited'
p531
I00
sS'truncated'
p532
I00
sS'text'
p533
S'NW Passing TD 0:56 2Q, NW 20, PSU 0'
p534
sS'created_at'
p535
S'Sat Nov 06 20:57:33 +0000 2010'
p536
sS'retweeted'
p537
I00
sS'coordinates'
p538
NsS'in_reply_to_status_id'
p539
NsS'place'
p540
NsS'in_reply_to_screen_name'
p541
NsS'retweet_count'
p542
NsS'geo'
p543
NsS'id'
p544
I1015350695038976
sa(dp545
S'favorited'
p546
I00
sS'truncated'
p547
I00
sS'text'
p548
S'2Q: NW 14, PSU 0'
p549
sS'created_at'
p550
S'Sat Nov 06 20:28:32 +0000 2010'
p551
sS'retweeted'
p552
I00
sS'coordinates'
p553
NsS'in_reply_to_status_id'
p554
NsS'place'
p555
NsS'in_reply_to_screen_name'
p556
NsS'retweet_count'
p557
NsS'geo'
p558
NsS'id'
p559
I1008050697670657
sa(dp560
S'favorited'
p561
I00
sS'truncated'
p562
I00
sS'text'
p563
S'2Q: NW 13, PSU 0'
p564
sS'created_at'
p565
S'Sat Nov 06 20:27:53 +0000 2010'
p566
sS'retweeted'
p567
I00
sS'coordinates'
p568
NsS'in_reply_to_status_id'
p569
NsS'place'
p570
NsS'in_reply_to_screen_name'
p571
NsS'retweet_count'
p572
NsS'geo'
p573
NsS'id'
p574
I1007886457110528
sa(dp575
S'favorited'
p576
I00
sS'truncated'
p577
I00
sS'text'
p578
S'NW PAT 12:07 1Q, NW 7, PSU 0'
p579
sS'created_at'
p580
S'Sat Nov 06 19:42:43 +0000 2010'
p581
sS'retweeted'
p582
I00
sS'coordinates'
p583
NsS'in_reply_to_status_id'
p584
NsS'place'
p585
NsS'in_reply_to_screen_name'
p586
NsS'retweet_count'
p587
NsS'geo'
p588
NsS'id'
p589
I996519494819840
sa(dp590
S'favorited'
p591
I00
sS'truncated'
p592
I00
sS'text'
p593
S'NW Rushing TD 12:07 1Q, NW 6, PSU 0'
p594
sS'created_at'
p595
S'Sat Nov 06 19:42:25 +0000 2010'
p596
sS'retweeted'
p597
I00
sS'coordinates'
p598
NsS'in_reply_to_status_id'
p599
NsS'place'
p600
NsS'in_reply_to_screen_name'
p601
NsS'retweet_count'
p602
NsS'geo'
p603
NsS'id'
p604
I996443816992768
sa(dp605
S'favorited'
p606
I00
sS'truncated'
p607
I00
sS'text'
p608
S'Final NW 20, Ind 17'
p609
sS'created_at'
p610
S'Sat Oct 30 19:25:53 +0000 2010'
p611
sS'retweeted'
p612
I00
sS'coordinates'
p613
NsS'in_reply_to_status_id'
p614
NsS'place'
p615
NsS'in_reply_to_screen_name'
p616
NsS'retweet_count'
p617
NsS'geo'
p618
NsS'id'
p619
I29211136747
sa(dp620
S'favorited'
p621
I00
sS'truncated'
p622
I00
sS'text'
p623
S'Ind PAT 0:54 4Q, NW 20, Ind 17'
p624
sS'created_at'
p625
S'Sat Oct 30 19:22:54 +0000 2010'
p626
sS'retweeted'
p627
I00
sS'coordinates'
p628
NsS'in_reply_to_status_id'
p629
NsS'place'
p630
NsS'in_reply_to_screen_name'
p631
NsS'retweet_count'
p632
NsS'geo'
p633
NsS'id'
p634
I29210941052
sasg274
(lp635
S'Taylorville_OMG'
p636
aS'EffinTeaPrty'
p637
aS'EffinRepubs_NEW'
p638
aS'SecurityComm1'
p639
aS'Joanne_chase'
p640
aS'EYSO'
p641
aS'Ashly_4_Charles'
p642
aS'shecookstoo'
p643
aS'KarenHanrahan'
p644
aS'JeffreyaMeier'
p645
aS'Northwesternmag'
p646
aS'msrenee310'
p647
aS'DNA2Diamonds'
p648
aS'DailyKoine'
p649
aS'adamwren'
p650
aS'TastyCatering'
p651
aS'1burdette'
p652
aS'ewebsmart'
p653
aS'hotnikelz'
p654
aS'FitBizWoman'
p655
aS'Hawkluver'
p656
aS'itsmeteddyb'
p657
aS'thetaxdude'
p658
aS'Bezmoney'
p659
aS'northcentralcol'
p660
aS'mtcrookshank'
p661
aS'SmartLudmilla'
p662
aS'jetroxas'
p663
aS'academicstudies'
p664
aS'drikoandra'
p665
aS'michaelslogan'
p666
aS'farnam4'
p667
aS'100Days100Ties'
p668
aS'yourgirlamy'
p669
aS'EvanCourtney'
p670
aS'LeeziaD'
p671
aS'REMAXSPRNGFLD'
p672
aS'tdwelch'
p673
aS'Patch4Wellness'
p674
aS'jimstarwalt'
p675
aS'CheapREI'
p676
aS'randylewiskemp'
p677
aS'keldabaljon'
p678
aS'Esoxgolf'
p679
aS'drg556'
p680
aS'TheMTFoundation'
p681
aS'NatalieWHall'
p682
aS'berniedog'
p683
aS'BrightBin'
p684
aS'EvanstonChamber'
p685
aS'norriscenter'
p686
aS'NathanEnfield'
p687
aS'evanstonweb'
p688
aS'evanstonsocial'
p689
aS'demetrithefish'
p690
aS'zachhubbard'
p691
aS'ehblass'
p692
aS'bgarfoot'
p693
aS'karioca'
p694
aS'Matt_idofilms'
p695
aS'EvanstonNow'
p696
aS'SheriD'
p697
aS'tennismom2'
p698
aS'joefaz'
p699
aS'JoelWarady'
p700
aS'DannyOrtegon'
p701
aS'stewartn'
p702
aS'buynugear'
p703
aS'scorely'
p704
asg300
(lp705
S'dwayne1957'
p706
aS'DailyKoine'
p707
aS'hzomayah'
p708
aS'DNA2Diamonds'
p709
aS'takeiteasy1239'
p710
aS'kapilville'
p711
aS'shoeschrist'
p712
aS'onehurtlady'
p713
aS'TParrington'
p714
aS'abc7chicago'
p715
aS'chairforce'
p716
aS'TheRadioFM'
p717
aS'jackbyrnes'
p718
aS'givethelight'
p719
aS'jennaXelizabeth'
p720
aS'musicforte'
p721
aS'EmoBoiLova16'
p722
aS'donnamariasu'
p723
aS'lassdev'
p724
aS'MissKellyOJ'
p725
aS'cmbruce2'
p726
aS'JusShar'
p727
aS'jasonsecrest'
p728
aS'momsherbs'
p729
aS'kaitlin1969'
p730
aS'Affiliatehelp'
p731
aS'gwellness'
p732
aS'donotgiveup'
p733
aS'self_help_books'
p734
aS'ddiamond77'
p735
aS'DalkullanJewel'
p736
aS'robinben'
p737
aS'tylerclay'
p738
aS'WingmanIL'
p739
aS'ewebsmart'
p740
aS'icirr'
p741
aS'NIJC'
p742
aS'KDixler'
p743
aS'katiefeltz'
p744
aS'DJPETERC'
p745
aS'authoritydomain'
p746
aS'PoeticPrincesss'
p747
aS'Blagica'
p748
aS'BreeeLovesYouu'
p749
aS'Ryan875'
p750
aS'MCACN'
p751
aS'hometelecommute'
p752
aS'harrietb'
p753
aS'L7DaKiddBear'
p754
aS'chicagoflooring'
p755
aS'markmulvihill'
p756
aS'Hawkluver'
p757
aS'ZudaGay'
p758
aS'naughtykitty64'
p759
aS'liveleehood'
p760
aS'ccruz1989'
p761
aS'caitlinroak'
p762
aS'ohthatCarolina'
p763
aS'sallas'
p764
aS'derbymailman'
p765
aS'JillR2086'
p766
aS'RooR_59_82'
p767
aS'ashleyobrien'
p768
aS'jennifermullin'
p769
aS'nikkigirrl'
p770
aS'poshjosh'
p771
aS'Vote4Wallace'
p772
aS'itsmeteddyb'
p773
aS'MichaelFry'
p774
aS'meg_vanderbaan'
p775
aS'dbug4'
p776
aS'Sprecket'
p777
aS'adreinhard'
p778
aS'stevemedina'
p779
aS'ScoresChicago'
p780
aS'iear'
p781
aS'GLITTERSTARZ'
p782
aS'myDaVinci'
p783
aS'kisberg'
p784
aS'iHearYaJoe'
p785
aS'FF101'
p786
aS'Recasm'
p787
aS'adyrcz'
p788
aS'tristano'
p789
aS'Tathagata'
p790
aS'Vetashep'
p791
aS'sirhempanite89'
p792
aS'threadfx'
p793
aS'bwgassman'
p794
aS'BellaPrincess09'
p795
aS'wragechels'
p796
aS'thedramascene'
p797
aS'MrSwaggahimself'
p798
aS'Aldbiz'
p799
aS'IllinoisLocal'
p800
aS'richfrompana'
p801
aS'AnikaAllTimeLow'
p802
aS'lilabeast'
p803
aS'SteveBorgman'
p804
aS'eejjennings'
p805
asg326
S'NWwildcats_cfb'
p806
sg328
g329
(S'\x07\xda\x0b\x08\x14/)\x00JK'
p807
tp808
Rp809
sa(dp810
g2
(lp811
(dp812
S'favorited'
p813
I00
sS'truncated'
p814
I00
sS'text'
p815
S'I have a feeling that the impending Starbucks / Kraft battle is going to get really interesting. http://tinyurl.com/2cgpss6 #starbucks'
p816
sS'created_at'
p817
S'Sat Nov 06 23:09:50 +0000 2010'
p818
sS'retweeted'
p819
I00
sS'coordinates'
p820
NsS'in_reply_to_status_id'
p821
NsS'place'
p822
NsS'in_reply_to_screen_name'
p823
NsS'retweet_count'
p824
NsS'geo'
p825
NsS'id'
p826
I1048640529367040
sa(dp827
S'favorited'
p828
I00
sS'truncated'
p829
I00
sS'text'
p830
S'Check out how Lowes is using Facebook to preview their post Thanksgiving sales. Good use of SM. http://tinyurl.com/2axelas'
p831
sS'created_at'
p832
S'Sat Nov 06 23:03:54 +0000 2010'
p833
sS'retweeted'
p834
I00
sS'coordinates'
p835
NsS'in_reply_to_status_id'
p836
NsS'place'
p837
NsS'in_reply_to_screen_name'
p838
NsS'retweet_count'
p839
NsS'geo'
p840
NsS'id'
p841
I1047148233756672
sa(dp842
S'favorited'
p843
I00
sS'truncated'
p844
I00
sS'text'
p845
S"Something that might've gone unnoticed. US News & World Report is going digital only. #signofthetimes. http://tinyurl.com/23okqy9"
p846
sS'created_at'
p847
S'Sat Nov 06 16:46:55 +0000 2010'
p848
sS'retweeted'
p849
I00
sS'coordinates'
p850
NsS'in_reply_to_status_id'
p851
NsS'place'
p852
NsS'in_reply_to_screen_name'
p853
NsS'retweet_count'
p854
NsS'geo'
p855
NsS'id'
p856
I952278064304128
sa(dp857
S'favorited'
p858
I00
sS'truncated'
p859
I00
sS'text'
p860
S'Interesting video interview w/ Pres. of NBC Research on the impact of the DVR as well as 55+ demo. http://tinyurl.com/362eeew'
p861
sS'created_at'
p862
S'Sat Nov 06 16:36:25 +0000 2010'
p863
sS'retweeted'
p864
I00
sS'coordinates'
p865
NsS'in_reply_to_status_id'
p866
NsS'place'
p867
NsS'in_reply_to_screen_name'
p868
NsS'retweet_count'
p869
NsS'geo'
p870
NsS'id'
p871
I949637879959552
sa(dp872
S'favorited'
p873
I00
sS'truncated'
p874
I00
sS'text'
p875
S'Ballmer sells $1.34 billion in Microsoft stock. Man, am I in the wrong business! http://tinyurl.com/242ctu6'
p876
sS'created_at'
p877
S'Sat Nov 06 03:50:38 +0000 2010'
p878
sS'retweeted'
p879
I00
sS'coordinates'
p880
NsS'in_reply_to_status_id'
p881
NsS'place'
p882
NsS'in_reply_to_screen_name'
p883
NsS'retweet_count'
p884
NsS'geo'
p885
NsS'id'
p886
I756918696026112
sa(dp887
S'favorited'
p888
I00
sS'truncated'
p889
I00
sS'text'
p890
S"Downtown LA (I'll be there tomorrow) continues to evolve. Target to open a store in the heart of downtown. http://tinyurl.com/37ewpaq"
p891
sS'created_at'
p892
S'Thu Nov 04 14:56:26 +0000 2010'
p893
sS'retweeted'
p894
I00
sS'coordinates'
p895
NsS'in_reply_to_status_id'
p896
NsS'place'
p897
NsS'in_reply_to_screen_name'
p898
NsS'retweet_count'
p899
NsS'geo'
p900
NsS'id'
p901
I29673737474
sa(dp902
S'favorited'
p903
I00
sS'truncated'
p904
I00
sS'text'
p905
S"@MadCreative Been pretty busy the last couple of weeks, so the Tweets dropped off a bit. But I bought a day-stretcher, so I'm good now."
p906
sS'created_at'
p907
S'Thu Nov 04 14:52:29 +0000 2010'
p908
sS'retweeted'
p909
I00
sS'coordinates'
p910
NsS'in_reply_to_status_id'
p911
I29672935707
sS'place'
p912
NsS'in_reply_to_screen_name'
p913
S'MadCreative'
p914
sS'retweet_count'
p915
NsS'geo'
p916
NsS'id'
p917
I29673415309
sa(dp918
S'favorited'
p919
I00
sS'truncated'
p920
I00
sS'text'
p921
S'Facebook Places and Facebook Deals can be extremely powerful as a part of an integrated marketing plan. http://tinyurl.com/2b6yosd'
p922
sS'created_at'
p923
S'Thu Nov 04 14:51:10 +0000 2010'
p924
sS'retweeted'
p925
I00
sS'coordinates'
p926
NsS'in_reply_to_status_id'
p927
NsS'place'
p928
NsS'in_reply_to_screen_name'
p929
NsS'retweet_count'
p930
NsS'geo'
p931
NsS'id'
p932
I29673311220
sa(dp933
S'favorited'
p934
I00
sS'truncated'
p935
I00
sS'text'
p936
S"This is interesting. #Chipotle to try their magic on Asian cuisine. Safe bet they'll get it right! http://tinyurl.com/2dfu4un"
p937
sS'created_at'
p938
S'Thu Nov 04 14:44:27 +0000 2010'
p939
sS'retweeted'
p940
I00
sS'coordinates'
p941
NsS'in_reply_to_status_id'
p942
NsS'place'
p943
NsS'in_reply_to_screen_name'
p944
NsS'retweet_count'
p945
NsS'geo'
p946
NsS'id'
p947
I29672776428
sa(dp948
S'favorited'
p949
I00
sS'truncated'
p950
I00
sS'text'
p951
S'Interesting article on how & why companies need to think about how their brands interact with tablets. http://tinyurl.com/22onzb5'
p952
sS'created_at'
p953
S'Thu Nov 04 14:37:35 +0000 2010'
p954
sS'retweeted'
p955
I00
sS'coordinates'
p956
NsS'in_reply_to_status_id'
p957
NsS'place'
p958
NsS'in_reply_to_screen_name'
p959
NsS'retweet_count'
p960
NsS'geo'
p961
NsS'id'
p962
I29672306653
sa(dp963
S'favorited'
p964
I00
sS'truncated'
p965
I00
sS'text'
p966
S'Our changing lifestyles are making a difference in the way we consume food. http://tinyurl.com/37eq3rl'
p967
sS'created_at'
p968
S'Wed Nov 03 04:57:05 +0000 2010'
p969
sS'retweeted'
p970
I00
sS'coordinates'
p971
NsS'in_reply_to_status_id'
p972
NsS'place'
p973
NsS'in_reply_to_screen_name'
p974
NsS'retweet_count'
p975
NsS'geo'
p976
NsS'id'
p977
I29542551800
sa(dp978
S'favorited'
p979
I00
sS'truncated'
p980
I00
sS'text'
p981
S'Fresh Market continues to expand during challenging economy. I find myself shopping there more & more. http://tinyurl.com/2dy99v4'
p982
sS'created_at'
p983
S'Wed Nov 03 04:49:46 +0000 2010'
p984
sS'retweeted'
p985
I00
sS'coordinates'
p986
NsS'in_reply_to_status_id'
p987
NsS'place'
p988
NsS'in_reply_to_screen_name'
p989
NsS'retweet_count'
p990
NsS'geo'
p991
NsS'id'
p992
I29542125534
sa(dp993
S'favorited'
p994
I00
sS'truncated'
p995
I00
sS'text'
p996
S'Should you ask followers on Twitter to become friends on FB? Interesting blog post discussing issue. http://tinyurl.com/33ky7fk'
p997
sS'created_at'
p998
S'Wed Nov 03 04:24:51 +0000 2010'
p999
sS'retweeted'
p1000
I00
sS'coordinates'
p1001
NsS'in_reply_to_status_id'
p1002
NsS'place'
p1003
NsS'in_reply_to_screen_name'
p1004
NsS'retweet_count'
p1005
NsS'geo'
p1006
NsS'id'
p1007
I29540594653
sa(dp1008
S'favorited'
p1009
I00
sS'truncated'
p1010
I00
sS'text'
p1011
S"28% of US mobile phones are smartphones. What's your mobile strategy? http://tinyurl.com/38vbeld"
p1012
sS'created_at'
p1013
S'Wed Nov 03 04:16:45 +0000 2010'
p1014
sS'retweeted'
p1015
I00
sS'coordinates'
p1016
NsS'in_reply_to_status_id'
p1017
NsS'place'
p1018
NsS'in_reply_to_screen_name'
p1019
NsS'retweet_count'
p1020
NsS'geo'
p1021
NsS'id'
p1022
I29540071096
sa(dp1023
S'favorited'
p1024
I00
sS'truncated'
p1025
I00
sS'text'
p1026
S"LinkedIn's enhancement, allowing businesses to create profiles & be followed, creates signif. opportunity. http://tinyurl.com/24b87bq"
p1027
sS'created_at'
p1028
S'Wed Nov 03 03:48:00 +0000 2010'
p1029
sS'retweeted'
p1030
I00
sS'coordinates'
p1031
NsS'in_reply_to_status_id'
p1032
NsS'place'
p1033
NsS'in_reply_to_screen_name'
p1034
NsS'retweet_count'
p1035
NsS'geo'
p1036
NsS'id'
p1037
I29538121163
sa(dp1038
S'favorited'
p1039
I00
sS'truncated'
p1040
I00
sS'text'
p1041
S'RT @VIPdesk Join us for: Customer Experience Management: The Key to Success w/ @JoelWarady Tue 11/9 1PM ET Looking forward to it!'
p1042
sS'created_at'
p1043
S'Wed Nov 03 03:37:12 +0000 2010'
p1044
sS'retweeted'
p1045
I00
sS'coordinates'
p1046
NsS'in_reply_to_status_id'
p1047
NsS'place'
p1048
NsS'in_reply_to_screen_name'
p1049
NsS'retweet_count'
p1050
NsS'geo'
p1051
NsS'id'
p1052
I29537338769
sa(dp1053
S'favorited'
p1054
I00
sS'truncated'
p1055
I00
sS'text'
p1056
S'On election night, gr8t to see that our former "nut" Governor Blagojevich is on a pistachio commercial. http://tinyurl.com/38ahw7o'
p1057
sS'created_at'
p1058
S'Wed Nov 03 03:35:31 +0000 2010'
p1059
sS'retweeted'
p1060
I00
sS'coordinates'
p1061
NsS'in_reply_to_status_id'
p1062
NsS'place'
p1063
NsS'in_reply_to_screen_name'
p1064
NsS'retweet_count'
p1065
NsS'geo'
p1066
NsS'id'
p1067
I29537220548
sa(dp1068
S'favorited'
p1069
I00
sS'truncated'
p1070
I00
sS'text'
p1071
S'I wonder if United Airlines realizes how poorly it treats its most loyal customers. #unitedcandobetter'
p1072
sS'created_at'
p1073
S'Mon Nov 01 00:09:20 +0000 2010'
p1074
sS'retweeted'
p1075
I00
sS'coordinates'
p1076
NsS'in_reply_to_status_id'
p1077
NsS'place'
p1078
NsS'in_reply_to_screen_name'
p1079
NsS'retweet_count'
p1080
NsS'geo'
p1081
NsS'id'
p1082
I29324075427
sa(dp1083
S'favorited'
p1084
I00
sS'truncated'
p1085
I00
sS'text'
p1086
S'Great marketing article how one CMO is trying to make carrots cool, and a junk-food alternative. http://tinyurl.com/2699jrt'
p1087
sS'created_at'
p1088
S'Sun Oct 31 22:32:39 +0000 2010'
p1089
sS'retweeted'
p1090
I00
sS'coordinates'
p1091
NsS'in_reply_to_status_id'
p1092
NsS'place'
p1093
NsS'in_reply_to_screen_name'
p1094
NsS'retweet_count'
p1095
NsS'geo'
p1096
NsS'id'
p1097
I29316702134
sasg274
(lp1098
S'SurferLifestyle'
p1099
aS'nikhil_parekh'
p1100
aS'tridentdebt'
p1101
aS'neoco'
p1102
aS'gamalaly'
p1103
aS'SocialMedia_180'
p1104
aS'Iwaoooooo'
p1105
aS'hughsouthall'
p1106
aS'hottraveldeals2'
p1107
aS'PRprofile'
p1108
aS'Jesselee82'
p1109
aS'MaddAdder'
p1110
aS'forexandprofit'
p1111
aS'YourLittleAcre'
p1112
aS'JPayge'
p1113
aS'icstee'
p1114
aS'fpreser'
p1115
aS'Proclaim_it'
p1116
aS'bhager5'
p1117
aS'Noutati_IT'
p1118
aS'DallasTxPI'
p1119
aS'GVOcom'
p1120
aS'imincoupons'
p1121
aS'mikegraffpr'
p1122
aS'Kentspeakman'
p1123
aS'Entourage_Group'
p1124
aS'wendyshewrote'
p1125
aS'7GracesMarketng'
p1126
aS'JiggyPiggyCo'
p1127
aS'nicolekrug'
p1128
aS'RRPia'
p1129
aS'ProImprints'
p1130
aS'Hazelcollins29'
p1131
aS'Jenicaedwards81'
p1132
aS'a319pilot'
p1133
aS'sandanyi'
p1134
aS'lollypopdance'
p1135
aS'jeanetteokwu'
p1136
aS'mattsingley'
p1137
aS'coinforum'
p1138
aS'RMHMktg'
p1139
aS'buzzroom_womma'
p1140
aS'nmincite'
p1141
aS'joshuahammond'
p1142
aS'MLMSHOP'
p1143
aS'LCAProject'
p1144
aS'aprimo'
p1145
aS'autonmike'
p1146
aS'earnandlose'
p1147
aS'avaappleton'
p1148
aS'liferakech'
p1149
aS'inktankpr'
p1150
aS'mashedvegas'
p1151
aS'NoyseWorks'
p1152
aS'GlutenFreedom'
p1153
aS'ekaffee'
p1154
aS'DebraZimmer'
p1155
aS'iwr'
p1156
aS'market901'
p1157
aS'discountgood'
p1158
aS'Marketing_Magik'
p1159
aS'awakeningaimee'
p1160
aS'ShopperAnnie'
p1161
aS'VIPdesk'
p1162
aS'ScottLeeCohen'
p1163
aS'facebookfire'
p1164
aS'ibizradio'
p1165
aS'Ryan_Mattock'
p1166
aS'ChestMarketing'
p1167
aS'rasmilu135'
p1168
aS'DutchHandmade'
p1169
aS'Word317'
p1170
aS'worth_noting'
p1171
aS'Update_Heating'
p1172
aS'ScorpioT81'
p1173
aS'zoominjosh'
p1174
aS'CPWSTraining'
p1175
aS'jordanvh'
p1176
aS'maloj9'
p1177
aS'DawnSandomeno'
p1178
aS'FacebookFlow'
p1179
aS'EmmanuelAnthony'
p1180
aS'stevellewis'
p1181
aS'nicknanton'
p1182
aS'CyberMark'
p1183
aS'R33LSOLJA'
p1184
aS'Arguisms'
p1185
aS'Voxtopia'
p1186
aS'FerminMacdowell'
p1187
aS'DonCooper'
p1188
aS'ZeroDayTech'
p1189
aS'JerleneAmith952'
p1190
aS'elisatalk'
p1191
aS'ThomasJCarter'
p1192
aS'1healthy1'
p1193
aS'RobertEReed'
p1194
aS'CloudTalkMe'
p1195
aS'tolabee'
p1196
aS'toyetoyetoye'
p1197
aS'wentzeldk'
p1198
asg300
(lp1199
S'GF_Insider'
p1200
aS'GlutenFreedom'
p1201
aS'GlutenFreeLists'
p1202
aS'IsGlutenFree'
p1203
aS'CeliacSpecialts'
p1204
aS'blackhawkinc'
p1205
aS'InvestorsABC'
p1206
aS'DutchHandmade'
p1207
aS'FerminMacdowell'
p1208
aS'linkgator'
p1209
aS'UAVAus'
p1210
aS'fuordigital'
p1211
aS'afreemobilesite'
p1212
aS'DonCooper'
p1213
aS'celiactravel'
p1214
aS'living_without'
p1215
aS'NanasCookieCo'
p1216
aS'SensitivePantry'
p1217
aS'Specialgourmets'
p1218
aS'ToroGlutenFree'
p1219
aS'GlutenFreeBee'
p1220
aS'GFRecipes'
p1221
aS'fibro_fog_blog'
p1222
aS'GFFerretRunner'
p1223
aS'gluten_allergy'
p1224
aS'glutenfreed'
p1225
aS'GlutenDairyFree'
p1226
aS'feelgoodfoods'
p1227
aS'imglutenfree'
p1228
aS'gfsteve'
p1229
aS'GlutenFreeNash'
p1230
aS'GlutenFreeIdeas'
p1231
aS'gfjungle'
p1232
aS'GFboston'
p1233
aS'ErinElberson'
p1234
aS'gfinthesouth'
p1235
aS'delightgfmag'
p1236
aS'GlutenFreeMedia'
p1237
aS'gfregistry'
p1238
aS'glutenfreeways'
p1239
aS'glutenfreefreak'
p1240
aS'glutenfreefun'
p1241
aS'glutenfreemike'
p1242
aS'Glutenfreeworks'
p1243
aS'ShopperAnnie'
p1244
aS'gfsoupmom'
p1245
aS'gfcrumpette'
p1246
aS'gfreeblonde'
p1247
aS'gfthatsme'
p1248
aS'gf_adventuregrl'
p1249
aS'glutenfreeGLEE'
p1250
aS'CeliacsTips'
p1251
aS'GlutenGossip'
p1252
aS'celiacdisease'
p1253
aS'CeliacFamily'
p1254
aS'GlutenFreePost'
p1255
aS'AllergyFreeLife'
p1256
aS'Mallergies'
p1257
aS'rasmilu135'
p1258
aS'ChestMarketing'
p1259
aS'ibizradio'
p1260
aS'Ryan_Mattock'
p1261
aS'Word317'
p1262
aS'ClayBrookMedia'
p1263
aS'worth_noting'
p1264
aS'Update_Heating'
p1265
aS'jordanvh'
p1266
aS'CPWSTraining'
p1267
aS'zoominjosh'
p1268
aS'ScorpioT81'
p1269
aS'stayhome4money'
p1270
aS'antonioenglish'
p1271
aS'Voxtopia'
p1272
aS'Arguisms'
p1273
aS'R33LSOLJA'
p1274
aS'CyberMark'
p1275
aS'nicknanton'
p1276
aS'stevellewis'
p1277
aS'EmmanuelAnthony'
p1278
aS'DawnSandomeno'
p1279
aS'autonmike'
p1280
aS'JerleneAmith952'
p1281
aS'joethegambler99'
p1282
aS'MarketVantage'
p1283
aS'elisatalk'
p1284
aS'ThomasJCarter'
p1285
aS'1healthy1'
p1286
aS'RobertEReed'
p1287
aS'CloudTalkMe'
p1288
aS'tolabee'
p1289
aS'KRKring'
p1290
aS'toyetoyetoye'
p1291
aS'wentzeldk'
p1292
aS'billcarton'
p1293
aS'5tevenw'
p1294
aS'MyEconReform'
p1295
aS'ian_howy'
p1296
aS'PayAsYouRead'
p1297
aS'USEstate'
p1298
aS'kathleenscookie'
p1299
asg326
g700
sg328
g329
(S'\x07\xda\x0b\x08\x14/3\x04\xef\x8b'
p1300
tp1301
Rp1302
sa(dp1303
g2
(lp1304
(dp1305
S'favorited'
p1306
I00
sS'truncated'
p1307
I00
sS'text'
p1308
S'Facebook Page Population http://f.ast.ly/fnpm6'
p1309
sS'created_at'
p1310
S'Sun Nov 07 22:35:16 +0000 2010'
p1311
sS'retweeted'
p1312
I00
sS'coordinates'
p1313
NsS'in_reply_to_status_id'
p1314
NsS'place'
p1315
NsS'in_reply_to_screen_name'
p1316
NsS'retweet_count'
p1317
NsS'geo'
p1318
NsS'id'
p1319
I1402330306056193
sa(dp1320
S'favorited'
p1321
I00
sS'truncated'
p1322
I00
sS'text'
p1323
S'RT Just kicking off the new website. What do you think? http://www.socialmedia180.com #socialmedia #marketing #advertising #pennystocks'
p1324
sS'created_at'
p1325
S'Sun Nov 07 20:52:47 +0000 2010'
p1326
sS'retweeted'
p1327
I00
sS'coordinates'
p1328
NsS'in_reply_to_status_id'
p1329
NsS'place'
p1330
NsS'in_reply_to_screen_name'
p1331
NsS'retweet_count'
p1332
NsS'geo'
p1333
NsS'id'
p1334
I1376542580023296
sa(dp1335
S'favorited'
p1336
I00
sS'truncated'
p1337
I00
sS'text'
p1338
S'Just added myself to the http://wefollow.com twitter directory under:  #chico_ca #business #entrepreneur #socialmedia #social'
p1339
sS'created_at'
p1340
S'Sun Nov 07 04:46:16 +0000 2010'
p1341
sS'retweeted'
p1342
I00
sS'coordinates'
p1343
NsS'in_reply_to_status_id'
p1344
NsS'place'
p1345
NsS'in_reply_to_screen_name'
p1346
NsS'retweet_count'
p1347
NsS'geo'
p1348
NsS'id'
p1349
I1133310042443777
sa(dp1350
S'favorited'
p1351
I00
sS'truncated'
p1352
I00
sS'text'
p1353
S'Social Media Package http://f.ast.ly/fQfut'
p1354
sS'created_at'
p1355
S'Thu Nov 04 15:20:41 +0000 2010'
p1356
sS'retweeted'
p1357
I00
sS'coordinates'
p1358
NsS'in_reply_to_status_id'
p1359
NsS'place'
p1360
NsS'in_reply_to_screen_name'
p1361
NsS'retweet_count'
p1362
NsS'geo'
p1363
NsS'id'
p1364
I29675806773
sa(dp1365
S'favorited'
p1366
I00
sS'truncated'
p1367
I00
sS'text'
p1368
S'Premium Package http://f.ast.ly/fqGUa'
p1369
sS'created_at'
p1370
S'Thu Nov 04 15:07:27 +0000 2010'
p1371
sS'retweeted'
p1372
I00
sS'coordinates'
p1373
NsS'in_reply_to_status_id'
p1374
NsS'place'
p1375
NsS'in_reply_to_screen_name'
p1376
NsS'retweet_count'
p1377
NsS'geo'
p1378
NsS'id'
p1379
I29674666241
sa(dp1380
S'favorited'
p1381
I00
sS'truncated'
p1382
I00
sS'text'
p1383
S'Plus Package http://f.ast.ly/fQmxp'
p1384
sS'created_at'
p1385
S'Thu Nov 04 14:59:16 +0000 2010'
p1386
sS'retweeted'
p1387
I00
sS'coordinates'
p1388
NsS'in_reply_to_status_id'
p1389
NsS'place'
p1390
NsS'in_reply_to_screen_name'
p1391
NsS'retweet_count'
p1392
NsS'geo'
p1393
NsS'id'
p1394
I29673969603
sa(dp1395
S'favorited'
p1396
I00
sS'truncated'
p1397
I00
sS'text'
p1398
S'Basic Package http://f.ast.ly/fpPF7'
p1399
sS'created_at'
p1400
S'Thu Nov 04 14:49:03 +0000 2010'
p1401
sS'retweeted'
p1402
I00
sS'coordinates'
p1403
NsS'in_reply_to_status_id'
p1404
NsS'place'
p1405
NsS'in_reply_to_screen_name'
p1406
NsS'retweet_count'
p1407
NsS'geo'
p1408
NsS'id'
p1409
I29673138889
sa(dp1410
S'favorited'
p1411
I00
sS'truncated'
p1412
I00
sS'text'
p1413
S'Contact http://f.ast.ly/fknQY'
p1414
sS'created_at'
p1415
S'Thu Nov 04 04:18:25 +0000 2010'
p1416
sS'retweeted'
p1417
I00
sS'coordinates'
p1418
NsS'in_reply_to_status_id'
p1419
NsS'place'
p1420
NsS'in_reply_to_screen_name'
p1421
NsS'retweet_count'
p1422
NsS'geo'
p1423
NsS'id'
p1424
I29639424248
sa(dp1425
S'favorited'
p1426
I00
sS'truncated'
p1427
I00
sS'text'
p1428
S'Website Design http://f.ast.ly/fdmmR'
p1429
sS'created_at'
p1430
S'Thu Nov 04 03:31:34 +0000 2010'
p1431
sS'retweeted'
p1432
I00
sS'coordinates'
p1433
NsS'in_reply_to_status_id'
p1434
NsS'place'
p1435
NsS'in_reply_to_screen_name'
p1436
NsS'retweet_count'
p1437
NsS'geo'
p1438
NsS'id'
p1439
I29636465995
sa(dp1440
S'favorited'
p1441
I00
sS'truncated'
p1442
I00
sS'text'
p1443
S'Contact http://f.ast.ly/fx8Mq'
p1444
sS'created_at'
p1445
S'Thu Nov 04 03:31:07 +0000 2010'
p1446
sS'retweeted'
p1447
I00
sS'coordinates'
p1448
NsS'in_reply_to_status_id'
p1449
NsS'place'
p1450
NsS'in_reply_to_screen_name'
p1451
NsS'retweet_count'
p1452
NsS'geo'
p1453
NsS'id'
p1454
I29636436629
sa(dp1455
S'favorited'
p1456
I00
sS'truncated'
p1457
I00
sS'text'
p1458
S'Mini Package http://f.ast.ly/f8y8E'
p1459
sS'created_at'
p1460
S'Wed Nov 03 21:26:23 +0000 2010'
p1461
sS'retweeted'
p1462
I00
sS'coordinates'
p1463
NsS'in_reply_to_status_id'
p1464
NsS'place'
p1465
NsS'in_reply_to_screen_name'
p1466
NsS'retweet_count'
p1467
NsS'geo'
p1468
NsS'id'
p1469
I29607465384
sa(dp1470
S'favorited'
p1471
I00
sS'truncated'
p1472
I00
sS'text'
p1473
S'iPhone Apps http://f.ast.ly/fNAg6'
p1474
sS'created_at'
p1475
S'Wed Nov 03 20:29:53 +0000 2010'
p1476
sS'retweeted'
p1477
I00
sS'coordinates'
p1478
NsS'in_reply_to_status_id'
p1479
NsS'place'
p1480
NsS'in_reply_to_screen_name'
p1481
NsS'retweet_count'
p1482
NsS'geo'
p1483
NsS'id'
p1484
I29603350396
sa(dp1485
S'favorited'
p1486
I00
sS'truncated'
p1487
I00
sS'text'
p1488
S'AdWords / SEO Packages http://f.ast.ly/yT2V9'
p1489
sS'created_at'
p1490
S'Wed Nov 03 20:18:47 +0000 2010'
p1491
sS'retweeted'
p1492
I00
sS'coordinates'
p1493
NsS'in_reply_to_status_id'
p1494
NsS'place'
p1495
NsS'in_reply_to_screen_name'
p1496
NsS'retweet_count'
p1497
NsS'geo'
p1498
NsS'id'
p1499
I29602566163
sa(dp1500
S'favorited'
p1501
I00
sS'truncated'
p1502
I00
sS'text'
p1503
S'About http://t.co/nsvrUNJ via @socialmedia_180'
p1504
sS'created_at'
p1505
S'Wed Nov 03 20:04:11 +0000 2010'
p1506
sS'retweeted'
p1507
I00
sS'coordinates'
p1508
NsS'in_reply_to_status_id'
p1509
NsS'place'
p1510
NsS'in_reply_to_screen_name'
p1511
NsS'retweet_count'
p1512
NsS'geo'
p1513
NsS'id'
p1514
I29601506198
sa(dp1515
S'favorited'
p1516
I00
sS'truncated'
p1517
I00
sS'text'
p1518
S'About http://f.ast.ly/yKKUU'
p1519
sS'created_at'
p1520
S'Wed Nov 03 19:52:30 +0000 2010'
p1521
sS'retweeted'
p1522
I00
sS'coordinates'
p1523
NsS'in_reply_to_status_id'
p1524
NsS'place'
p1525
NsS'in_reply_to_screen_name'
p1526
NsS'retweet_count'
p1527
NsS'geo'
p1528
NsS'id'
p1529
I29600679669
sa(dp1530
S'favorited'
p1531
I00
sS'truncated'
p1532
I00
sS'text'
p1533
S'Social Media Revolution http://f.ast.ly/fRScv'
p1534
sS'created_at'
p1535
S'Wed Nov 03 19:51:41 +0000 2010'
p1536
sS'retweeted'
p1537
I00
sS'coordinates'
p1538
NsS'in_reply_to_status_id'
p1539
NsS'place'
p1540
NsS'in_reply_to_screen_name'
p1541
NsS'retweet_count'
p1542
NsS'geo'
p1543
NsS'id'
p1544
I29600619741
sa(dp1545
S'favorited'
p1546
I00
sS'truncated'
p1547
I00
sS'text'
p1548
S'Partial Flash Support Comes to iPhone via Skyfire Mobile Browser http://f.ast.ly/y3cV8'
p1549
sS'created_at'
p1550
S'Wed Nov 03 19:42:05 +0000 2010'
p1551
sS'retweeted'
p1552
I00
sS'coordinates'
p1553
NsS'in_reply_to_status_id'
p1554
NsS'place'
p1555
NsS'in_reply_to_screen_name'
p1556
NsS'retweet_count'
p1557
NsS'geo'
p1558
NsS'id'
p1559
I29599977831
sa(dp1560
S'favorited'
p1561
I00
sS'truncated'
p1562
I00
sS'text'
p1563
S'Local Deals Come to Facebook Places http://t.co/duFGqvn via @socialmedia_180'
p1564
sS'created_at'
p1565
S'Wed Nov 03 19:34:00 +0000 2010'
p1566
sS'retweeted'
p1567
I00
sS'coordinates'
p1568
NsS'in_reply_to_status_id'
p1569
NsS'place'
p1570
NsS'in_reply_to_screen_name'
p1571
NsS'retweet_count'
p1572
NsS'geo'
p1573
NsS'id'
p1574
I29599443903
sasg274
(lp1575
S'SlowDownSD'
p1576
aS'careerengineer'
p1577
aS'yangnying'
p1578
aS'KarenVizer'
p1579
aS'PernaConstruct'
p1580
aS'lenapple'
p1581
aS'wolliejr'
p1582
aS'dreamtripscda'
p1583
aS'IanAspin'
p1584
aS'gbeaty'
p1585
aS'trakatiksmusic'
p1586
aS'rocknhorses'
p1587
aS'JuergenHerzog'
p1588
aS'twitgrids'
p1589
aS'StageTimeMag'
p1590
aS'mapmall'
p1591
aS'whoisrobharris'
p1592
aS'sambell'
p1593
aS'talltad'
p1594
aS'jasonstamper'
p1595
aS'AntonStetner'
p1596
aS'BooDesigns'
p1597
aS'StockTipster'
p1598
aS'CXGGroup'
p1599
aS'billbaren'
p1600
aS'JasonBraud'
p1601
aS'VTOrganizeNOW'
p1602
aS'hsbnetwork'
p1603
aS'jennydecki'
p1604
aS'awebbiz'
p1605
aS'CindyHartman'
p1606
aS'smallcaptips'
p1607
aS'zuzanna20'
p1608
aS'aussierob7'
p1609
aS'patrickghoward'
p1610
aS'SoulfulSolution'
p1611
aS'GSocialMedia'
p1612
aS'newbeats4u'
p1613
aS'DanielSharkov'
p1614
aS'bestforexcours'
p1615
aS'megansforbes'
p1616
aS'MindfullyChange'
p1617
aS'CraigSymmons'
p1618
aS'commodityguy'
p1619
aS'RealLifeTravels'
p1620
aS'w2meet'
p1621
aS'realrichestate'
p1622
aS'FaustaLavender'
p1623
aS'marketingnube'
p1624
aS'Mrock1'
p1625
aS'alltrendingtops'
p1626
aS'guillembaches'
p1627
aS'pennypick'
p1628
aS'stagingdiva'
p1629
aS'ZV_Capital'
p1630
aS'in8holdings'
p1631
aS'giantfigeater'
p1632
aS'forecastall'
p1633
asg300
(lp1634
S'JordinDykes'
p1635
aS'RaloWonder'
p1636
aS'FLPTeam'
p1637
aS'swarup'
p1638
aS'AttorneyCross'
p1639
aS'GordWeisflock'
p1640
aS'JayLoftus'
p1641
aS'GoodPilotNews'
p1642
aS'blackberry23'
p1643
aS'havonamadama'
p1644
aS'ROBmcbryde'
p1645
aS'jamirenea'
p1646
aS'vadirectory'
p1647
aS'IanAspin'
p1648
aS'rycaut'
p1649
aS'trakatiksmusic'
p1650
aS'TheCityPaper'
p1651
aS'iGoByDoc'
p1652
aS'mkerstein'
p1653
aS'jelamesq'
p1654
aS'SabinaLes'
p1655
aS'DublinTrail'
p1656
aS'cathlynchoi'
p1657
aS'sugarjojo'
p1658
aS'farnooz'
p1659
aS'Ed_Palacios'
p1660
aS'realprosystems'
p1661
aS'budzlog'
p1662
aS'blazeonerecords'
p1663
aS'erheil'
p1664
aS'thingtweetthing'
p1665
aS'ukpayroll'
p1666
aS'wpinc'
p1667
aS'personaldevelop'
p1668
aS'KarenVizer'
p1669
aS'ysommer2'
p1670
aS'BREG1'
p1671
aS'Coach_Ken'
p1672
aS'FutureOfGlow'
p1673
aS'pratyushagarwal'
p1674
aS'karlaborgendale'
p1675
aS'InBusiness2day'
p1676
aS'ujjalg'
p1677
aS'tweeterdiva'
p1678
aS'careerengineer'
p1679
aS'Shimbin'
p1680
aS'vendorcity'
p1681
aS'emsmth'
p1682
aS'HRTools'
p1683
aS'ShortcutsOnline'
p1684
aS'conradfpc'
p1685
aS'Rflowers127'
p1686
aS'fredgillen'
p1687
aS'ACAUTOPLEX'
p1688
aS'4xTradersLIVE'
p1689
aS'LemonadeDayFun'
p1690
aS'ViralRealtor'
p1691
aS'JoelWarady'
p1692
aS'abacus_abm'
p1693
aS'TerryTraveland'
p1694
aS'fayskeetesobers'
p1695
aS'Georgethornock'
p1696
aS'SalvadorUrrea'
p1697
aS'graeme_harrison'
p1698
aS'GroovyBrent'
p1699
aS'keithweeks'
p1700
aS'Producer_Robin'
p1701
aS'UmlaZi'
p1702
aS'DarleneToombs'
p1703
aS'SlowDownSD'
p1704
aS'thesoftlanding'
p1705
aS'nickpicano'
p1706
aS'CherilynnStone'
p1707
aS'goRobotic'
p1708
aS'a1_ClubWear'
p1709
aS'lalushadi'
p1710
aS'vividtone'
p1711
aS'JuergenHerzog'
p1712
aS'wolliejr'
p1713
aS'lenapple'
p1714
aS'bnrbranding'
p1715
aS'RehanRizvi'
p1716
aS'kimsonvu'
p1717
aS'youdeserveit'
p1718
aS'LyonSHARE'
p1719
aS'SueTamani'
p1720
aS'jc3technology'
p1721
aS'clickmycoupon'
p1722
aS'ManorRealEstate'
p1723
aS'perrylimes'
p1724
aS'GoodNewsAllDay'
p1725
aS'DCgal62'
p1726
aS'SrArthurStreebG'
p1727
aS'kimberleybubble'
p1728
aS'EarthTimesPR'
p1729
aS'cyfocus'
p1730
aS'aaronsavka'
p1731
aS'TalkingResults'
p1732
aS'BrandiMaine'
p1733
aS'Kingsley4'
p1734
asg326
g1104
sg328
g329
(S'\x07\xda\x0b\x08\x140\x02\x0b\xceq'
p1735
tp1736
Rp1737
sa(dp1738
g2
(lp1739
(dp1740
S'favorited'
p1741
I00
sS'truncated'
p1742
I00
sS'text'
p1743
S'Qatar Airways CEO Wins Achievement Award  http://bit.ly/dd7cjl'
p1744
sS'created_at'
p1745
S'Mon Nov 08 06:29:01 +0000 2010'
p1746
sS'retweeted'
p1747
I00
sS'coordinates'
p1748
NsS'in_reply_to_status_id'
p1749
NsS'place'
p1750
NsS'in_reply_to_screen_name'
p1751
NsS'retweet_count'
p1752
NsS'geo'
p1753
NsS'id'
p1754
I1521555527966720
sa(dp1755
S'favorited'
p1756
I00
sS'truncated'
p1757
I00
sS'text'
p1758
S'Half the fun of the travel is the esthetic of lostness.-- Ray Bradbury'
p1759
sS'created_at'
p1760
S'Mon Nov 08 06:27:28 +0000 2010'
p1761
sS'retweeted'
p1762
I00
sS'coordinates'
p1763
NsS'in_reply_to_status_id'
p1764
NsS'place'
p1765
NsS'in_reply_to_screen_name'
p1766
NsS'retweet_count'
p1767
NsS'geo'
p1768
NsS'id'
p1769
I1521164325228544
sa(dp1770
S'favorited'
p1771
I00
sS'truncated'
p1772
I00
sS'text'
p1773
S'Old man boards plane, leaves a young man  http://bit.ly/bJabTn'
p1774
sS'created_at'
p1775
S'Sat Nov 06 08:06:41 +0000 2010'
p1776
sS'retweeted'
p1777
I00
sS'coordinates'
p1778
NsS'in_reply_to_status_id'
p1779
NsS'place'
p1780
NsS'in_reply_to_screen_name'
p1781
NsS'retweet_count'
p1782
NsS'geo'
p1783
NsS'id'
p1784
I821356660789248
sa(dp1785
S'favorited'
p1786
I00
sS'truncated'
p1787
I00
sS'text'
p1788
S'yippee i have bought two cool dresses.'
p1789
sS'created_at'
p1790
S'Sat Nov 06 08:05:41 +0000 2010'
p1791
sS'retweeted'
p1792
I00
sS'coordinates'
p1793
NsS'in_reply_to_status_id'
p1794
NsS'place'
p1795
NsS'in_reply_to_screen_name'
p1796
NsS'retweet_count'
p1797
NsS'geo'
p1798
NsS'id'
p1799
I821104402759680
sa(dp1800
S'favorited'
p1801
I00
sS'truncated'
p1802
I00
sS'text'
p1803
S'Prime Minister announces world-leading technology city  http://bit.ly/d9KLa7'
p1804
sS'created_at'
p1805
S'Fri Nov 05 07:20:32 +0000 2010'
p1806
sS'retweeted'
p1807
I00
sS'coordinates'
p1808
NsS'in_reply_to_status_id'
p1809
NsS'place'
p1810
NsS'in_reply_to_screen_name'
p1811
NsS'retweet_count'
p1812
NsS'geo'
p1813
NsS'id'
p1814
I447356357050369
sa(dp1815
S'favorited'
p1816
I00
sS'truncated'
p1817
I00
sS'text'
p1818
S'I travel a lot; I hate having my life disrupted by routine. --Caskie Stinnett'
p1819
sS'created_at'
p1820
S'Fri Nov 05 07:20:10 +0000 2010'
p1821
sS'retweeted'
p1822
I00
sS'coordinates'
p1823
NsS'in_reply_to_status_id'
p1824
NsS'place'
p1825
NsS'in_reply_to_screen_name'
p1826
NsS'retweet_count'
p1827
NsS'geo'
p1828
NsS'id'
p1829
I447262920544256
sa(dp1830
S'favorited'
p1831
I00
sS'truncated'
p1832
I00
sS'text'
p1833
S'Anglia News Severe Storms For England Snow & Kettering Missing Mother + Ambulance Crash http://bit.ly/aVgOCF'
p1834
sS'created_at'
p1835
S'Thu Nov 04 06:57:18 +0000 2010'
p1836
sS'retweeted'
p1837
I00
sS'coordinates'
p1838
NsS'in_reply_to_status_id'
p1839
NsS'place'
p1840
NsS'in_reply_to_screen_name'
p1841
NsS'retweet_count'
p1842
NsS'geo'
p1843
NsS'id'
p1844
I29646926557
sa(dp1845
S'favorited'
p1846
I00
sS'truncated'
p1847
I00
sS'text'
p1848
S"'Life to me is a journey - you never know what may be your next destination' --  David Russell"
p1849
sS'created_at'
p1850
S'Thu Nov 04 06:56:42 +0000 2010'
p1851
sS'retweeted'
p1852
I00
sS'coordinates'
p1853
NsS'in_reply_to_status_id'
p1854
NsS'place'
p1855
NsS'in_reply_to_screen_name'
p1856
NsS'retweet_count'
p1857
NsS'geo'
p1858
NsS'id'
p1859
I29646901879
sa(dp1860
S'favorited'
p1861
I00
sS'truncated'
p1862
I00
sS'text'
p1863
S"How's Your News? - Texas http://bit.ly/czLSto"
p1864
sS'created_at'
p1865
S'Wed Nov 03 13:13:08 +0000 2010'
p1866
sS'retweeted'
p1867
I00
sS'coordinates'
p1868
NsS'in_reply_to_status_id'
p1869
NsS'place'
p1870
NsS'in_reply_to_screen_name'
p1871
NsS'retweet_count'
p1872
NsS'geo'
p1873
NsS'id'
p1874
I29569725927
sa(dp1875
S'favorited'
p1876
I00
sS'truncated'
p1877
I00
sS'text'
p1878
S'Volcanic Ash Cloud Causes Yet More Travel Mysery http://bit.ly/afCCdO'
p1879
sS'created_at'
p1880
S'Wed Nov 03 13:12:58 +0000 2010'
p1881
sS'retweeted'
p1882
I00
sS'coordinates'
p1883
NsS'in_reply_to_status_id'
p1884
NsS'place'
p1885
NsS'in_reply_to_screen_name'
p1886
NsS'retweet_count'
p1887
NsS'geo'
p1888
NsS'id'
p1889
I29569712542
sa(dp1890
S'favorited'
p1891
I00
sS'truncated'
p1892
I00
sS'text'
p1893
S'I love oldies just kind of sweet, slinky, Fifties music. The slow stuff. And Billie Holiday.-- Nastassja Kinski'
p1894
sS'created_at'
p1895
S'Wed Nov 03 13:12:22 +0000 2010'
p1896
sS'retweeted'
p1897
I00
sS'coordinates'
p1898
NsS'in_reply_to_status_id'
p1899
NsS'place'
p1900
NsS'in_reply_to_screen_name'
p1901
NsS'retweet_count'
p1902
NsS'geo'
p1903
NsS'id'
p1904
I29569664287
sa(dp1905
S'favorited'
p1906
I00
sS'truncated'
p1907
I00
sS'text'
p1908
S"It's really a beautiful morning.. the sun shinning at its best"
p1909
sS'created_at'
p1910
S'Wed Nov 03 13:11:49 +0000 2010'
p1911
sS'retweeted'
p1912
I00
sS'coordinates'
p1913
NsS'in_reply_to_status_id'
p1914
NsS'place'
p1915
NsS'in_reply_to_screen_name'
p1916
NsS'retweet_count'
p1917
NsS'geo'
p1918
NsS'id'
p1919
I29569619063
sa(dp1920
S'favorited'
p1921
I00
sS'truncated'
p1922
I00
sS'text'
p1923
S'I need something big in my pocket, coz I deserve this'
p1924
sS'created_at'
p1925
S'Tue Nov 02 05:56:49 +0000 2010'
p1926
sS'retweeted'
p1927
I00
sS'coordinates'
p1928
NsS'in_reply_to_status_id'
p1929
NsS'place'
p1930
NsS'in_reply_to_screen_name'
p1931
NsS'retweet_count'
p1932
NsS'geo'
p1933
NsS'id'
p1934
I29444823831
sa(dp1935
S'favorited'
p1936
I00
sS'truncated'
p1937
I00
sS'text'
p1938
S'Canada needs to overhaul tourism industry: Coalition'
p1939
sS'created_at'
p1940
S'Tue Nov 02 05:55:11 +0000 2010'
p1941
sS'retweeted'
p1942
I00
sS'coordinates'
p1943
NsS'in_reply_to_status_id'
p1944
NsS'place'
p1945
NsS'in_reply_to_screen_name'
p1946
NsS'retweet_count'
p1947
NsS'geo'
p1948
NsS'id'
p1949
I29444745474
sasg274
(lp1950
S'yangnying'
p1951
aS'Sinsation9875'
p1952
aS'JDwebDesign'
p1953
aS'MONDOprint_com'
p1954
aS'anca3d_AR'
p1955
aS'isobelphillips'
p1956
aS'HiTech_Product'
p1957
aS'VSymon'
p1958
aS'Vacrier'
p1959
aS'NaturalEase'
p1960
aS'GreenGorillaSF'
p1961
aS'ForexFellow'
p1962
aS'CarmaDee'
p1963
aS'goodnewstouse'
p1964
aS'luvNatural'
p1965
aS'mschmidlen'
p1966
aS'RebelWhale'
p1967
aS'CapsityOffices'
p1968
aS'RayCaffrey'
p1969
aS'ScholarshipFact'
p1970
aS'flightorg'
p1971
aS'Gemstars'
p1972
aS'like2me'
p1973
aS'coachisrael'
p1974
aS'LaVintagee'
p1975
aS'Mylifeisfaith'
p1976
aS'mattedmundson'
p1977
aS'PaulMcdowell'
p1978
aS'ouss1'
p1979
aS'FetishFreakTed'
p1980
aS'karandesirecool'
p1981
aS'eslincanada'
p1982
aS'thesilvagroup'
p1983
aS'LouisMartel'
p1984
aS'incomsis'
p1985
aS'financeinfo'
p1986
aS'workwithliz'
p1987
aS'jilleenanderson'
p1988
aS'VasilyKomarov'
p1989
aS'yourlif2'
p1990
aS'OfficeQueen'
p1991
aS'Sweasy26'
p1992
aS'SocialNetDaily'
p1993
aS'ScoMo'
p1994
aS'RonaldNevers'
p1995
aS'AffiliatePromo'
p1996
aS'coffeemaverick'
p1997
aS'affiliateturtle'
p1998
aS'JamesBlute'
p1999
aS'shawnjmccarthy'
p2000
aS'UEvents'
p2001
aS'home_program'
p2002
aS'Samiluvly'
p2003
aS'Eddy_Chan'
p2004
aS'WebmasterSecret'
p2005
aS'sinela'
p2006
aS'parnellk63'
p2007
aS'JALohmann'
p2008
aS'MakeYourMark'
p2009
aS'Graisee'
p2010
aS'onlinepro'
p2011
aS'copywithresults'
p2012
aS'DanScott'
p2013
aS'Miss_Friday'
p2014
aS'mikegriffith'
p2015
aS'iadapt'
p2016
aS'RossDalangin'
p2017
aS'RobertHathhorn'
p2018
aS'mytradingcoach'
p2019
aS'va4hire'
p2020
aS'CEHueber'
p2021
aS'wiseleadership'
p2022
aS'lonewordsmith'
p2023
aS'juttarund'
p2024
aS'BrunoLovrinovic'
p2025
aS'stevepohlit'
p2026
aS'BrittPhillips'
p2027
aS'InBusiness2day'
p2028
aS'ephran'
p2029
aS'tpressley'
p2030
aS'SiahSpyderman'
p2031
aS'WisconsinWeb'
p2032
aS'cp_uk'
p2033
aS'bernarde'
p2034
aS'1mwilson'
p2035
aS'StudioPress'
p2036
aS'goodnews2use'
p2037
aS'buildahomebiz2'
p2038
aS'www_3dollar_de'
p2039
aS'TheBumpMeister'
p2040
aS'RobinVDM'
p2041
aS'angelaksgiles'
p2042
aS'wendyleal'
p2043
aS'GEMAffair'
p2044
aS'thomasbartke'
p2045
aS'ProAdPlacers'
p2046
aS'save_2_years'
p2047
aS'dougkirchmann'
p2048
aS'obaidulhaque'
p2049
aS'rictownsend'
p2050
asg300
(lp2051
S'pchaney'
p2052
aS'martibarletta'
p2053
aS'rayhilbert'
p2054
aS'Maxmoon023'
p2055
aS'robinweirich'
p2056
aS'movoxo'
p2057
aS'jbots4444'
p2058
aS'onlinesecretary'
p2059
aS'RebeccaBriggs'
p2060
aS'BusinessZone'
p2061
aS'mattNZ'
p2062
aS'WayneLiew'
p2063
aS'ModernMom'
p2064
aS'MikeLevineLB'
p2065
aS'Aussie_Promos'
p2066
aS'darlasycamore'
p2067
aS'jisaac'
p2068
aS'DayneShuda'
p2069
aS'mrjaredjames'
p2070
aS'gregskidmore'
p2071
aS'ellenbritt'
p2072
aS'marketmaster'
p2073
aS'gabymenta'
p2074
aS'aaambler'
p2075
aS'peterurban'
p2076
aS'GautamGhosh'
p2077
aS'RenWelsh'
p2078
aS'kevinmic'
p2079
aS'ginatrapani'
p2080
aS'slamoutte'
p2081
aS'fractals'
p2082
aS'RogerioSaraiva'
p2083
aS'oup'
p2084
aS'senze'
p2085
aS'CloBo'
p2086
aS'rskemps'
p2087
aS'WhoisJamiBreit'
p2088
aS'fastcompany'
p2089
aS'b160allen'
p2090
aS'johnpannell'
p2091
aS'gertjanvanlaar'
p2092
aS'AAARenee'
p2093
aS'chzu'
p2094
aS'JasonRayl'
p2095
aS'BizTrek'
p2096
aS'BlakesDesigns'
p2097
aS'alleyinsider'
p2098
aS'JoeTrippi'
p2099
aS'larrybrauner'
p2100
aS'egon'
p2101
aS'teodor_biz'
p2102
aS'Avahosting'
p2103
aS'fanminder'
p2104
aS'danyelo'
p2105
aS'MsParker411'
p2106
aS'wpchatter'
p2107
aS'danieljohnsonjr'
p2108
aS'stevengroves'
p2109
aS'rachappell'
p2110
aS'bodymindsuccess'
p2111
aS'LindaOJ'
p2112
aS'msatterwhite'
p2113
aS'jonziskind'
p2114
aS'thebrandbuilder'
p2115
aS'strategiclee'
p2116
aS'MichaelJalone'
p2117
aS'cecipf'
p2118
aS'MPosada'
p2119
aS'IvanAlvarez'
p2120
aS'FLPTeam'
p2121
aS'swarup'
p2122
aS'AttorneyCross'
p2123
aS'GordWeisflock'
p2124
aS'rycaut'
p2125
aS'mkerstein'
p2126
aS'jelamesq'
p2127
aS'personaldevelop'
p2128
aS'AvisPope'
p2129
aS'JoelWarady'
p2130
aS'cyfocus'
p2131
aS'haywho'
p2132
aS'RockYourBiz'
p2133
aS'rampcreative'
p2134
aS'eskimo_sparky'
p2135
aS'GarretOhm'
p2136
aS'cden71'
p2137
aS'benhoffman'
p2138
aS'raycornwall'
p2139
aS'biird'
p2140
aS'peterdjohnston'
p2141
aS'calavdw'
p2142
aS'Ms_Jay'
p2143
aS'franchisedev'
p2144
aS'Mark_Braunstein'
p2145
aS'HarryDelgado'
p2146
aS'Jason_OToole'
p2147
aS'abayyan'
p2148
aS'barbaraub'
p2149
aS'kiruba'
p2150
aS'alejandroalton'
p2151
asg326
g1107
sg328
g329
(S'\x07\xda\x0b\x08\x140\x0c\x00\x9b\xf3'
p2152
tp2153
Rp2154
sa(dp2155
g2
(lp2156
(dp2157
S'favorited'
p2158
I00
sS'truncated'
p2159
I00
sS'text'
p2160
S'@LetsSmingle Hi Beverly'
p2161
sS'created_at'
p2162
S'Mon Nov 08 21:14:25 +0000 2010'
p2163
sS'retweeted'
p2164
I00
sS'coordinates'
p2165
NsS'in_reply_to_status_id'
p2166
I1744172750999553
sS'place'
p2167
NsS'in_reply_to_screen_name'
p2168
S'LetsSmingle'
p2169
sS'retweet_count'
p2170
NsS'geo'
p2171
NsS'id'
p2172
I1744373591048194
sa(dp2173
S'favorited'
p2174
I00
sS'truncated'
p2175
I00
sS'text'
p2176
S'@FreshChallenges Hey Rebecca'
p2177
sS'created_at'
p2178
S'Mon Nov 08 21:13:42 +0000 2010'
p2179
sS'retweeted'
p2180
I00
sS'coordinates'
p2181
NsS'in_reply_to_status_id'
p2182
I1744059253129216
sS'place'
p2183
NsS'in_reply_to_screen_name'
p2184
S'FreshChallenges'
p2185
sS'retweet_count'
p2186
NsS'geo'
p2187
NsS'id'
p2188
I1744191008804864
sa(dp2189
S'favorited'
p2190
I00
sS'truncated'
p2191
I00
sS'text'
p2192
S'Evening All'
p2193
sS'created_at'
p2194
S'Mon Nov 08 21:12:43 +0000 2010'
p2195
sS'retweeted'
p2196
I00
sS'coordinates'
p2197
NsS'in_reply_to_status_id'
p2198
NsS'place'
p2199
NsS'in_reply_to_screen_name'
p2200
NsS'retweet_count'
p2201
NsS'geo'
p2202
NsS'id'
p2203
I1743946690592768
sa(dp2204
S'favorited'
p2205
I00
sS'truncated'
p2206
I00
sS'text'
p2207
S'@silverconcierge thanks Louise'
p2208
sS'created_at'
p2209
S'Mon Nov 08 20:55:43 +0000 2010'
p2210
sS'retweeted'
p2211
I00
sS'coordinates'
p2212
NsS'in_reply_to_status_id'
p2213
I1723249390002176
sS'place'
p2214
NsS'in_reply_to_screen_name'
p2215
S'silverconcierge'
p2216
sS'retweet_count'
p2217
NsS'geo'
p2218
NsS'id'
p2219
I1739668240470016
sa(dp2220
S'favorited'
p2221
I00
sS'truncated'
p2222
I00
sS'text'
p2223
V*Help for Heroes* Matt gets 1 for every follower - - - - &gt; FOLLOW --&gt; @coastaltrek
p2224
sS'created_at'
p2225
S'Mon Nov 08 19:44:53 +0000 2010'
p2226
sS'retweeted'
p2227
I00
sS'coordinates'
p2228
NsS'in_reply_to_status_id'
p2229
NsS'place'
p2230
NsS'in_reply_to_screen_name'
p2231
NsS'retweet_count'
p2232
NsS'geo'
p2233
NsS'id'
p2234
I1721842872090624
sa(dp2235
S'favorited'
p2236
I00
sS'truncated'
p2237
I00
sS'text'
p2238
S'@albino_smurf joke :)'
p2239
sS'created_at'
p2240
S'Mon Nov 08 18:20:22 +0000 2010'
p2241
sS'retweeted'
p2242
I00
sS'coordinates'
p2243
NsS'in_reply_to_status_id'
p2244
I1700014879412224
sS'place'
p2245
NsS'in_reply_to_screen_name'
p2246
S'albino_smurf'
p2247
sS'retweet_count'
p2248
NsS'geo'
p2249
NsS'id'
p2250
I1700569592897536
sa(dp2251
S'favorited'
p2252
I00
sS'truncated'
p2253
I00
sS'text'
p2254
S'Lol jeepers . . . . Snow . . .  Made you look :)'
p2255
sS'created_at'
p2256
S'Mon Nov 08 18:19:16 +0000 2010'
p2257
sS'retweeted'
p2258
I00
sS'coordinates'
p2259
NsS'in_reply_to_status_id'
p2260
NsS'place'
p2261
NsS'in_reply_to_screen_name'
p2262
NsS'retweet_count'
p2263
NsS'geo'
p2264
NsS'id'
p2265
I1700296388513792
sa(dp2266
S'favorited'
p2267
I00
sS'truncated'
p2268
I00
sS'text'
p2269
S'Look outside now its snowing !!!!!!!!'
p2270
sS'created_at'
p2271
S'Mon Nov 08 18:15:23 +0000 2010'
p2272
sS'retweeted'
p2273
I00
sS'coordinates'
p2274
NsS'in_reply_to_status_id'
p2275
NsS'place'
p2276
NsS'in_reply_to_screen_name'
p2277
NsS'retweet_count'
p2278
NsS'geo'
p2279
NsS'id'
p2280
I1699317156937728
sa(dp2281
S'favorited'
p2282
I00
sS'truncated'
p2283
I00
sS'text'
p2284
S'@TheHsibley you had a good day ?'
p2285
sS'created_at'
p2286
S'Mon Nov 08 18:13:13 +0000 2010'
p2287
sS'retweeted'
p2288
I00
sS'coordinates'
p2289
NsS'in_reply_to_status_id'
p2290
I1697053725958144
sS'place'
p2291
NsS'in_reply_to_screen_name'
p2292
S'TheHsibley'
p2293
sS'retweet_count'
p2294
NsS'geo'
p2295
NsS'id'
p2296
I1698773877137408
sa(dp2297
S'favorited'
p2298
I00
sS'truncated'
p2299
I00
sS'text'
p2300
S'Attention all schools teachers . . . If snow closes your school . . . .please give at least 15 minutes max warning to parents lol'
p2301
sS'created_at'
p2302
S'Mon Nov 08 18:11:05 +0000 2010'
p2303
sS'retweeted'
p2304
I00
sS'coordinates'
p2305
NsS'in_reply_to_status_id'
p2306
NsS'place'
p2307
NsS'in_reply_to_screen_name'
p2308
NsS'retweet_count'
p2309
NsS'geo'
p2310
NsS'id'
p2311
I1698234783244288
sa(dp2312
S'favorited'
p2313
I00
sS'truncated'
p2314
I00
sS'text'
p2315
S'@silverconcierge holy moly :('
p2316
sS'created_at'
p2317
S'Mon Nov 08 18:09:58 +0000 2010'
p2318
sS'retweeted'
p2319
I00
sS'coordinates'
p2320
NsS'in_reply_to_status_id'
p2321
I1696260058775552
sS'place'
p2322
NsS'in_reply_to_screen_name'
p2323
S'silverconcierge'
p2324
sS'retweet_count'
p2325
NsS'geo'
p2326
NsS'id'
p2327
I1697952934404096
sa(dp2328
S'favorited'
p2329
I00
sS'truncated'
p2330
I00
sS'text'
p2331
S"@yakpa just checking . . . Didn't want crossed wires :)"
p2332
sS'created_at'
p2333
S'Mon Nov 08 18:09:21 +0000 2010'
p2334
sS'retweeted'
p2335
I00
sS'coordinates'
p2336
NsS'in_reply_to_status_id'
p2337
I1697243014889472
sS'place'
p2338
NsS'in_reply_to_screen_name'
p2339
S'yakpa'
p2340
sS'retweet_count'
p2341
NsS'geo'
p2342
NsS'id'
p2343
I1697799154438145
sa(dp2344
S'favorited'
p2345
I00
sS'truncated'
p2346
I00
sS'text'
p2347
S'@yakpa jeepers . . . .that a question or a statement'
p2348
sS'created_at'
p2349
S'Mon Nov 08 18:05:15 +0000 2010'
p2350
sS'retweeted'
p2351
I00
sS'coordinates'
p2352
NsS'in_reply_to_status_id'
p2353
I1695919921700864
sS'place'
p2354
NsS'in_reply_to_screen_name'
p2355
S'yakpa'
p2356
sS'retweet_count'
p2357
NsS'geo'
p2358
NsS'id'
p2359
I1696766114136064
sa(dp2360
S'favorited'
p2361
I00
sS'truncated'
p2362
I00
sS'text'
p2363
S'Please say its a joke about snow due this week . . . . .'
p2364
sS'created_at'
p2365
S'Mon Nov 08 18:01:11 +0000 2010'
p2366
sS'retweeted'
p2367
I00
sS'coordinates'
p2368
NsS'in_reply_to_status_id'
p2369
NsS'place'
p2370
NsS'in_reply_to_screen_name'
p2371
NsS'retweet_count'
p2372
NsS'geo'
p2373
NsS'id'
p2374
I1695745245716481
sa(dp2375
S'favorited'
p2376
I00
sS'truncated'
p2377
I00
sS'text'
p2378
S'@pencil_case1 wet and cold grrrrr'
p2379
sS'created_at'
p2380
S'Mon Nov 08 18:00:22 +0000 2010'
p2381
sS'retweeted'
p2382
I00
sS'coordinates'
p2383
NsS'in_reply_to_status_id'
p2384
I1694932695777280
sS'place'
p2385
NsS'in_reply_to_screen_name'
p2386
S'pencil_case1'
p2387
sS'retweet_count'
p2388
NsS'geo'
p2389
NsS'id'
p2390
I1695536738467840
sa(dp2391
S'favorited'
p2392
I00
sS'truncated'
p2393
I00
sS'text'
p2394
S'Hello All !'
p2395
sS'created_at'
p2396
S'Mon Nov 08 17:57:30 +0000 2010'
p2397
sS'retweeted'
p2398
I00
sS'coordinates'
p2399
NsS'in_reply_to_status_id'
p2400
NsS'place'
p2401
NsS'in_reply_to_screen_name'
p2402
NsS'retweet_count'
p2403
NsS'geo'
p2404
NsS'id'
p2405
I1694815574032384
sa(dp2406
S'favorited'
p2407
I00
sS'truncated'
p2408
I00
sS'text'
p2409
S"@AspectLtd 1. Follow your nemesis's followers 2. Unfollow who don't follow you bk 3. Be cool (give g8 advice) 4. Automate (within reason)"
p2410
sS'created_at'
p2411
S'Mon Nov 08 14:08:23 +0000 2010'
p2412
sS'retweeted'
p2413
I00
sS'coordinates'
p2414
NsS'in_reply_to_status_id'
p2415
I1632935350370304
sS'place'
p2416
NsS'in_reply_to_screen_name'
p2417
S'AspectLtd'
p2418
sS'retweet_count'
p2419
NsS'geo'
p2420
NsS'id'
p2421
I1637159077416960
sa(dp2422
S'favorited'
p2423
I00
sS'truncated'
p2424
I00
sS'text'
p2425
S'@DaphneRowan no probs Daphne'
p2426
sS'created_at'
p2427
S'Mon Nov 08 13:16:28 +0000 2010'
p2428
sS'retweeted'
p2429
I00
sS'coordinates'
p2430
NsS'in_reply_to_status_id'
p2431
I1621603846717440
sS'place'
p2432
NsS'in_reply_to_screen_name'
p2433
S'DaphneRowan'
p2434
sS'retweet_count'
p2435
NsS'geo'
p2436
NsS'id'
p2437
I1624090473398272
sa(dp2438
S'favorited'
p2439
I00
sS'truncated'
p2440
I00
sS'text'
p2441
S'@sue_allport 1000000% agree'
p2442
sS'created_at'
p2443
S'Mon Nov 08 11:38:57 +0000 2010'
p2444
sS'retweeted'
p2445
I00
sS'coordinates'
p2446
NsS'in_reply_to_status_id'
p2447
I1599025128148992
sS'place'
p2448
NsS'in_reply_to_screen_name'
p2449
S'sue_allport'
p2450
sS'retweet_count'
p2451
NsS'geo'
p2452
NsS'id'
p2453
I1599552251494400
sasg274
(lp2454
S'derantoncich'
p2455
aS'nowicks_com'
p2456
aS'rockstarvafirm'
p2457
aS'WilkinsonGraeme'
p2458
aS'Felic_Ang'
p2459
aS'OurClubhouse'
p2460
aS'WorkFromHomeUK'
p2461
aS'mikeberrytweets'
p2462
aS'donnaww1'
p2463
aS'Faithfulfish'
p2464
aS'nutrifreaky'
p2465
aS'Law_Crossing'
p2466
aS'MerchantsMoving'
p2467
aS'CassTyson'
p2468
aS'_VAssistant'
p2469
aS'CTComConsult'
p2470
aS'gtweet11'
p2471
aS'GreatHiking'
p2472
aS'CamcoTravel'
p2473
aS'ServiceteamLtd'
p2474
aS'bingojunkieuk'
p2475
aS'DefiantSun'
p2476
aS'Cheekeong_Tan'
p2477
aS'in2shape'
p2478
aS'StraightGlobal'
p2479
aS'homeacnecures'
p2480
aS'ISlaveYouTry'
p2481
aS'Hugtweets'
p2482
aS'T_R_employee'
p2483
aS'PsychologyNow'
p2484
aS'BillMyParents'
p2485
aS'moldsu'
p2486
aS'Reillysyi'
p2487
aS'CarolVerity'
p2488
aS'realsuperurbano'
p2489
aS'im4thegoodlife'
p2490
aS'HelenaEscalante'
p2491
aS'SLWells'
p2492
aS'gerabene'
p2493
aS'BarWines'
p2494
aS'VirtuAllin'
p2495
aS'1MiamiHurricane'
p2496
aS'teresamhill'
p2497
aS'Cellscenter'
p2498
aS'FamilyInvest'
p2499
aS'casdex'
p2500
aS'rorypw'
p2501
aS'TUFC'
p2502
aS'HaysTravel'
p2503
aS'Recruitaroo'
p2504
aS'dot2uk'
p2505
aS'Rob_lol'
p2506
aS'Tee_Millz'
p2507
aS'poweringsocialm'
p2508
aS'WILLIAMMIERO'
p2509
aS'toolsindex'
p2510
aS'soh_fia'
p2511
aS'ScotBizNetwork'
p2512
aS'jessicaspeake'
p2513
aS'TheArticleCoach'
p2514
aS'Vertical_Cat'
p2515
aS'_rosiegray_'
p2516
aS'alliancemortgag'
p2517
aS'ANIReport'
p2518
aS'AnastaciaMidgl'
p2519
aS'bullfrogmedia'
p2520
aS'geoffurs'
p2521
aS'CrystalPlacecom'
p2522
aS'AlexDigirati'
p2523
aS'GetFreePCHelp'
p2524
aS'debevs'
p2525
aS'cecemariev'
p2526
aS'katukuru'
p2527
aS'RobertVTweeter'
p2528
aS'halogentv'
p2529
aS'binreminded'
p2530
aS'erbcoach'
p2531
aS'johnsatheno'
p2532
aS'credit_guide'
p2533
aS'chinmeibaken'
p2534
aS'JulieRodriguezU'
p2535
aS'Kath1peterson'
p2536
aS'Jamee_4_Irish_A'
p2537
aS'nikalies'
p2538
aS'bugoutkit'
p2539
aS'Kat_in_Peru'
p2540
aS'bankrollbabe'
p2541
aS'bzaco'
p2542
aS'Saskiadenise'
p2543
aS'BestStartups'
p2544
aS'creadoringresos'
p2545
aS'KeithMorris6921'
p2546
aS'WealthyPlayTime'
p2547
aS'Micah4Laurinbur'
p2548
aS'SustainSuccess'
p2549
aS'LouisBrown_'
p2550
aS'realestateguro'
p2551
aS'nemtyrev'
p2552
aS'ArtDish'
p2553
aS'OliviaHolcombe'
p2554
asg300
(lp2555
S'jeffkatz1946'
p2556
aS'missangel1077'
p2557
aS'davehassellband'
p2558
aS'javen_009'
p2559
aS'chessblogcom'
p2560
aS'teru382'
p2561
aS'TheMarketingArc'
p2562
aS'SHDickson'
p2563
aS'candydye'
p2564
aS'BulahSchabbing1'
p2565
aS'derantoncich'
p2566
aS'PennsylvaniaOMG'
p2567
aS'TheMakeoverMom'
p2568
aS'SaveYourStuff'
p2569
aS'LScullyPromoZ'
p2570
aS'CaliBowl'
p2571
aS'Moonpoppy'
p2572
aS'ronworth'
p2573
aS'halogentv'
p2574
aS'bestbiztv'
p2575
aS'sovelaviorg'
p2576
aS'momAgenda'
p2577
aS'Malcolm12boxes'
p2578
aS'MoiraUpton'
p2579
aS'SarahPluves'
p2580
aS'sharpendtrain'
p2581
aS'ddmurp'
p2582
aS'AdamBFernandes'
p2583
aS'rosannekilbourn'
p2584
aS'jason_duff'
p2585
aS'ewnetwork'
p2586
aS'AndyBramhill'
p2587
aS'Salescapability'
p2588
aS'JacquiKemp'
p2589
aS'kakolibd'
p2590
aS'PsychologyNow'
p2591
aS'anonnabd'
p2592
aS'shikhabd'
p2593
aS'AHomeWithin'
p2594
aS'Preetybd'
p2595
aS'kareenabd'
p2596
aS'melinaabbott'
p2597
aS'MarianneCurphey'
p2598
aS'Vertical_Cat'
p2599
aS'HealthySparx'
p2600
aS'uktreasurehunts'
p2601
aS'KaribaCLtd'
p2602
aS'urbetterlife1'
p2603
aS'thesecludedtea'
p2604
aS'duncanbrodie'
p2605
aS'CieAuraRocks'
p2606
aS'shrink_wraps'
p2607
aS'amypurdie'
p2608
aS'4networkderby'
p2609
aS'lookderbyshire'
p2610
aS'BasiliskData'
p2611
aS'4NSheffield'
p2612
aS'AboveParr'
p2613
aS'StarPS'
p2614
aS'MCDVirtualOffic'
p2615
aS'PeakFoods'
p2616
aS'ruththirtle'
p2617
aS'ConfDerbyshire'
p2618
aS'hrnorthderbys'
p2619
aS'AdPlace'
p2620
aS'BDPs'
p2621
aS'IdeasStrategies'
p2622
aS'4NChesterfield'
p2623
aS'richardhinds'
p2624
aS'Derbyshirecc'
p2625
aS'NarobDrachir'
p2626
aS'pharoscoach'
p2627
aS'design_nottm'
p2628
aS'MoAboutTown'
p2629
aS'teresamhill'
p2630
aS'sonicnation'
p2631
aS'iCyanCat'
p2632
aS'LBBIMA'
p2633
aS'first_one_on'
p2634
aS'MarketingBullSh'
p2635
aS'kmballoons'
p2636
aS'affiliate_reprt'
p2637
aS'networkmistress'
p2638
aS'RobertVTweeter'
p2639
aS'philhull56'
p2640
aS'AffiliateEmails'
p2641
aS'TrudyYesCanDo'
p2642
aS'Bill_Bored'
p2643
aS'4NStaines'
p2644
aS'TheSavingsQueen'
p2645
aS'genemarks'
p2646
aS'climbingstation'
p2647
aS'kilew'
p2648
aS'JeVoudraisCake'
p2649
aS'CraigSymmons'
p2650
aS'jane_gregory'
p2651
aS'book_keepers'
p2652
aS'khmission'
p2653
aS'rightprint'
p2654
aS'simplyprofitabl'
p2655
asg326
g1999
sg328
g329
(S'\x07\xda\x0b\x08\x140\x19\x07\xae\xd2'
p2656
tp2657
Rp2658
sa(dp2659
g2
(lp2660
(dp2661
S'favorited'
p2662
I00
sS'truncated'
p2663
I00
sS'text'
p2664
S'Liverpool beat Chelsea. Gotta love that! #lfc'
p2665
sS'created_at'
p2666
S'Sun Nov 07 17:52:31 +0000 2010'
p2667
sS'retweeted'
p2668
I00
sS'coordinates'
p2669
NsS'in_reply_to_status_id'
p2670
NsS'place'
p2671
NsS'in_reply_to_screen_name'
p2672
NsS'retweet_count'
p2673
NsS'geo'
p2674
NsS'id'
p2675
I1331173309550593
sa(dp2676
S'favorited'
p2677
I00
sS'truncated'
p2678
I00
sS'text'
p2679
S'#f1 brazil baby. Bring it on!'
p2680
sS'created_at'
p2681
S'Sun Nov 07 15:27:57 +0000 2010'
p2682
sS'retweeted'
p2683
I00
sS'coordinates'
p2684
NsS'in_reply_to_status_id'
p2685
NsS'place'
p2686
NsS'in_reply_to_screen_name'
p2687
NsS'retweet_count'
p2688
NsS'geo'
p2689
NsS'id'
p2690
I1294794349350912
sa(dp2691
S'favorited'
p2692
I00
sS'truncated'
p2693
I00
sS'text'
p2694
S"Watching @mandogroup 's CEO Matt Johnson do a funky chicken dance with 40 kids! Yep, it's funny!"
p2695
sS'created_at'
p2696
S'Sun Nov 07 10:38:44 +0000 2010'
p2697
sS'retweeted'
p2698
I00
sS'coordinates'
p2699
NsS'in_reply_to_status_id'
p2700
NsS'place'
p2701
NsS'in_reply_to_screen_name'
p2702
NsS'retweet_count'
p2703
NsS'geo'
p2704
NsS'id'
p2705
I1222007962214401
sa(dp2706
S'favorited'
p2707
I00
sS'truncated'
p2708
I00
sS'text'
p2709
S'@SPDT4CANCERUSA thanks Gab!'
p2710
sS'created_at'
p2711
S'Sun Nov 07 09:55:39 +0000 2010'
p2712
sS'retweeted'
p2713
I00
sS'coordinates'
p2714
NsS'in_reply_to_status_id'
p2715
I1171108854239232
sS'place'
p2716
NsS'in_reply_to_screen_name'
p2717
S'SPDT4CANCERUSA'
p2718
sS'retweet_count'
p2719
NsS'geo'
p2720
NsS'id'
p2721
I1211166009331714
sa(dp2722
S'favorited'
p2723
I00
sS'truncated'
p2724
I00
sS'text'
p2725
S'Peter Kay in a Marks and Spencer ad. Brilliant!'
p2726
sS'created_at'
p2727
S'Sat Nov 06 21:16:44 +0000 2010'
p2728
sS'retweeted'
p2729
I00
sS'coordinates'
p2730
NsS'in_reply_to_status_id'
p2731
NsS'place'
p2732
NsS'in_reply_to_screen_name'
p2733
NsS'retweet_count'
p2734
NsS'geo'
p2735
NsS'id'
p2736
I1020179886645248
sa(dp2737
S'favorited'
p2738
I00
sS'truncated'
p2739
I00
sS'text'
p2740
S'RT @simonsinek: "If you wanna know if you\'re living your values look at how you choose to spend your money & your time" - Frumi Barr'
p2741
sS'created_at'
p2742
S'Sat Nov 06 21:13:52 +0000 2010'
p2743
sS'retweeted'
p2744
I00
sS'coordinates'
p2745
NsS'in_reply_to_status_id'
p2746
NsS'place'
p2747
NsS'in_reply_to_screen_name'
p2748
NsS'retweet_count'
p2749
NsS'geo'
p2750
NsS'id'
p2751
I1019457963040768
sa(dp2752
S'favorited'
p2753
I00
sS'truncated'
p2754
I00
sS'text'
p2755
S"X-factor! I know I shouldn't but I can't seem to help myself!"
p2756
sS'created_at'
p2757
S'Sat Nov 06 19:51:31 +0000 2010'
p2758
sS'retweeted'
p2759
I00
sS'coordinates'
p2760
NsS'in_reply_to_status_id'
p2761
NsS'place'
p2762
NsS'in_reply_to_screen_name'
p2763
NsS'retweet_count'
p2764
NsS'geo'
p2765
NsS'id'
p2766
I998735932817411
sa(dp2767
S'favorited'
p2768
I00
sS'truncated'
p2769
I00
sS'text'
p2770
S"just finished John Grisham's The Confession. great book. here's the last para if you want to read it http://amzn.com/k/2CFPBHNPNQ5JL #Kindle"
p2771
sS'created_at'
p2772
S'Sat Nov 06 10:15:59 +0000 2010'
p2773
sS'retweeted'
p2774
I00
sS'coordinates'
p2775
NsS'in_reply_to_status_id'
p2776
NsS'place'
p2777
NsS'in_reply_to_screen_name'
p2778
NsS'retweet_count'
p2779
NsS'geo'
p2780
NsS'id'
p2781
I853895622434816
sa(dp2782
S'favorited'
p2783
I00
sS'truncated'
p2784
I00
sS'text'
p2785
S'Happy bonfire night. Enjoy the fire works.'
p2786
sS'created_at'
p2787
S'Fri Nov 05 18:43:36 +0000 2010'
p2788
sS'retweeted'
p2789
I00
sS'coordinates'
p2790
NsS'in_reply_to_status_id'
p2791
NsS'place'
p2792
NsS'in_reply_to_screen_name'
p2793
NsS'retweet_count'
p2794
NsS'geo'
p2795
NsS'id'
p2796
I619256114843648
sa(dp2797
S'favorited'
p2798
I00
sS'truncated'
p2799
I00
sS'text'
p2800
S'#f1  Live - Brazilian GP practice  http://tiny.ly/iPun'
p2801
sS'created_at'
p2802
S'Fri Nov 05 16:38:47 +0000 2010'
p2803
sS'retweeted'
p2804
I00
sS'coordinates'
p2805
NsS'in_reply_to_status_id'
p2806
NsS'place'
p2807
NsS'in_reply_to_screen_name'
p2808
NsS'retweet_count'
p2809
NsS'geo'
p2810
NsS'id'
p2811
I587844686979072
sa(dp2812
S'favorited'
p2813
I00
sS'truncated'
p2814
I00
sS'text'
p2815
S'#f1  Vettel & Webber fastest in Brazil  http://tiny.ly/HHEi'
p2816
sS'created_at'
p2817
S'Fri Nov 05 14:55:08 +0000 2010'
p2818
sS'retweeted'
p2819
I00
sS'coordinates'
p2820
NsS'in_reply_to_status_id'
p2821
NsS'place'
p2822
NsS'in_reply_to_screen_name'
p2823
NsS'retweet_count'
p2824
NsS'geo'
p2825
NsS'id'
p2826
I561760750804993
sa(dp2827
S'favorited'
p2828
I00
sS'truncated'
p2829
I00
sS'text'
p2830
S"@ianfinch Hope that's a compliment...funnily enough - I am putting something like that in the book!"
p2831
sS'created_at'
p2832
S'Fri Nov 05 14:03:27 +0000 2010'
p2833
sS'retweeted'
p2834
I00
sS'coordinates'
p2835
NsS'in_reply_to_status_id'
p2836
I337097693073408
sS'place'
p2837
NsS'in_reply_to_screen_name'
p2838
S'ianfinch'
p2839
sS'retweet_count'
p2840
NsS'geo'
p2841
NsS'id'
p2842
I548751294861312
sa(dp2843
S'favorited'
p2844
I00
sS'truncated'
p2845
I00
sS'text'
p2846
S'#f1  Live - Brazilian GP practice  http://tiny.ly/5Zah'
p2847
sS'created_at'
p2848
S'Fri Nov 05 11:39:59 +0000 2010'
p2849
sS'retweeted'
p2850
I00
sS'coordinates'
p2851
NsS'in_reply_to_status_id'
p2852
NsS'place'
p2853
NsS'in_reply_to_screen_name'
p2854
NsS'retweet_count'
p2855
NsS'geo'
p2856
NsS'id'
p2857
I512649892724737
sa(dp2858
S'favorited'
p2859
I00
sS'truncated'
p2860
I00
sS'text'
p2861
S'#f1  Vettel is number one, says Webber  http://tiny.ly/L2jP'
p2862
sS'created_at'
p2863
S'Fri Nov 05 10:10:07 +0000 2010'
p2864
sS'retweeted'
p2865
I00
sS'coordinates'
p2866
NsS'in_reply_to_status_id'
p2867
NsS'place'
p2868
NsS'in_reply_to_screen_name'
p2869
NsS'retweet_count'
p2870
NsS'geo'
p2871
NsS'id'
p2872
I490032343289856
sa(dp2873
S'favorited'
p2874
I00
sS'truncated'
p2875
I00
sS'text'
p2876
S'6 days until en-those conference. Have you booked yet? Www.en-thuse.com'
p2877
sS'created_at'
p2878
S'Fri Nov 05 07:26:41 +0000 2010'
p2879
sS'retweeted'
p2880
I00
sS'coordinates'
p2881
NsS'in_reply_to_status_id'
p2882
NsS'place'
p2883
NsS'in_reply_to_screen_name'
p2884
NsS'retweet_count'
p2885
NsS'geo'
p2886
NsS'id'
p2887
I448903753240576
sa(dp2888
S'favorited'
p2889
I00
sS'truncated'
p2890
I00
sS'text'
p2891
S'@peteotten I know! I have to cycle home myself...'
p2892
sS'created_at'
p2893
S'Thu Nov 04 16:10:21 +0000 2010'
p2894
sS'retweeted'
p2895
I00
sS'coordinates'
p2896
NsS'in_reply_to_status_id'
p2897
I29674622809
sS'place'
p2898
NsS'in_reply_to_screen_name'
p2899
S'PeteOtten'
p2900
sS'retweet_count'
p2901
NsS'geo'
p2902
NsS'id'
p2903
I29679880347
sa(dp2904
S'favorited'
p2905
I00
sS'truncated'
p2906
I00
sS'text'
p2907
S'#f1  Massa to assist Alonso title bid  http://tiny.ly/vXzX'
p2908
sS'created_at'
p2909
S'Thu Nov 04 16:05:46 +0000 2010'
p2910
sS'retweeted'
p2911
I00
sS'coordinates'
p2912
NsS'in_reply_to_status_id'
p2913
NsS'place'
p2914
NsS'in_reply_to_screen_name'
p2915
NsS'retweet_count'
p2916
NsS'geo'
p2917
NsS'id'
p2918
I29679527082
sa(dp2919
S'favorited'
p2920
I00
sS'truncated'
p2921
I00
sS'text'
p2922
VNew Blog Post:  I\u2019m thinking about writing a book on how to start a business  http://tiny.ly/EPdf
p2923
sS'created_at'
p2924
S'Thu Nov 04 13:40:02 +0000 2010'
p2925
sS'retweeted'
p2926
I00
sS'coordinates'
p2927
NsS'in_reply_to_status_id'
p2928
NsS'place'
p2929
NsS'in_reply_to_screen_name'
p2930
NsS'retweet_count'
p2931
NsS'geo'
p2932
NsS'id'
p2933
I29668762795
sa(dp2934
S'favorited'
p2935
I00
sS'truncated'
p2936
I00
sS'text'
p2937
S"RT @thelifething: 10 TED Talks That Will Rock Your World Like A Giant Gorilla On Steroids - http://tinyurl.com/29vbftk // I'd add Dan Pink!"
p2938
sS'created_at'
p2939
S'Thu Nov 04 11:49:42 +0000 2010'
p2940
sS'retweeted'
p2941
I00
sS'coordinates'
p2942
NsS'in_reply_to_status_id'
p2943
NsS'place'
p2944
NsS'in_reply_to_screen_name'
p2945
NsS'retweet_count'
p2946
NsS'geo'
p2947
NsS'id'
p2948
I29661258456
sa(dp2949
S'favorited'
p2950
I00
sS'truncated'
p2951
I00
sS'text'
p2952
S"I'm amazed at how popular this has become: The story of what happened when I pulled a dying man from a car recently. http://su.pr/1PWCMf"
p2953
sS'created_at'
p2954
S'Thu Nov 04 10:15:31 +0000 2010'
p2955
sS'retweeted'
p2956
I00
sS'coordinates'
p2957
NsS'in_reply_to_status_id'
p2958
NsS'place'
p2959
NsS'in_reply_to_screen_name'
p2960
NsS'retweet_count'
p2961
NsS'geo'
p2962
NsS'id'
p2963
I29655751392
sasg274
(lp2964
S'jasfresh'
p2965
aS'cocodomiki'
p2966
aS'JakeMcClure'
p2967
aS'frutto_bot'
p2968
aS'DNASessions'
p2969
aS'bar_blue'
p2970
aS'taktak3110'
p2971
aS'ryowatanave'
p2972
aS'globalnavynews'
p2973
aS'sousiroh'
p2974
aS'hiro_lab75'
p2975
aS'thebreachway'
p2976
aS'fansfollowers'
p2977
aS'ACPRail'
p2978
aS'ilive4thefuture'
p2979
aS'pinkinvestors'
p2980
aS'geekaydeep'
p2981
aS'JackJackC'
p2982
aS'LAareanews'
p2983
aS'LatestWorld'
p2984
aS'Ausra_3'
p2985
aS'worldairdefnews'
p2986
aS'LatestIndia'
p2987
aS'PROMO4MODELS'
p2988
aS'nicolepowerss'
p2989
aS'deansdip'
p2990
aS'darjeeling88'
p2991
aS'SustainSuccess'
p2992
aS'Seojedai'
p2993
aS'nowicks_com'
p2994
aS'Andrea_in_Jacks'
p2995
aS'business_meigen'
p2996
aS'sikumun'
p2997
aS'lhwsl'
p2998
aS'seobooks98'
p2999
aS'songtel'
p3000
aS'AliciaFPark'
p3001
aS'Rangers_NEWS140'
p3002
aS'49ers_NEWS140'
p3003
aS'covelliboutique'
p3004
aS'batoubot'
p3005
aS'hirotajinja'
p3006
aS'lucyicemix'
p3007
aS'nishisayu7'
p3008
aS'marron315'
p3009
aS'DJBustout'
p3010
aS'KimCookPBMP'
p3011
aS'taio_toshiaki'
p3012
aS'vincentbass'
p3013
aS'FrugalGlamour'
p3014
aS'lava_360'
p3015
aS'norfrank'
p3016
aS'JenniferWilsonT'
p3017
aS'kittykatcash'
p3018
aS'msjadebubxo'
p3019
aS'misaki4411'
p3020
aS'GoTripTV'
p3021
aS'longaddict'
p3022
aS'SWB_life'
p3023
aS'aliaaO8921O'
p3024
aS'lcejp'
p3025
aS'takizawaya'
p3026
aS'isakura_1988'
p3027
aS'sydcapuera'
p3028
aS'frecklween'
p3029
aS'sukiyaki_yaro'
p3030
aS'ouroanel'
p3031
aS'W90210US_LADIES'
p3032
aS'zitoumyou'
p3033
aS'capershammond'
p3034
aS'furukawa9inc'
p3035
aS'geydson_10'
p3036
aS'niconicooon'
p3037
aS'pepsreport'
p3038
aS'Eyeglasses123'
p3039
aS'_KanMatsu'
p3040
aS'Rokataro'
p3041
aS'TheTwitMedia'
p3042
aS'KumariMiddleton'
p3043
aS'prepare4theend'
p3044
aS'fyeahrhpscaps'
p3045
aS'TaraLondonMusic'
p3046
aS'timesharehl'
p3047
aS'Farah_D93'
p3048
aS'KeepGraysonHome'
p3049
aS'us0007'
p3050
aS'SunsOMG'
p3051
aS'nakakura1623'
p3052
aS'VAStateParks'
p3053
aS'News_Car'
p3054
aS'squidwardthe2nd'
p3055
aS'inagoooooo'
p3056
aS'chellodis'
p3057
aS'konstaberg'
p3058
aS'GustavoHessel'
p3059
aS'Empleo_UD'
p3060
aS'DortheStricker'
p3061
aS'Edwiyen'
p3062
aS'nikhil_parekh'
p3063
aS'bitesizelearn'
p3064
asg300
(lp3065
S'nikhil_parekh'
p3066
aS'TalieSwaq'
p3067
aS'G_devi'
p3068
aS'713punky'
p3069
aS'noxinc'
p3070
aS'minoyago'
p3071
aS'PureGPS'
p3072
aS'bravoafterdark'
p3073
aS'tko_f_fukuda'
p3074
aS'basil_blue'
p3075
aS'ideidenet'
p3076
aS'masasweeet'
p3077
aS'bodenterbunuh83'
p3078
aS'fansfollowers'
p3079
aS'esthe1puzzle'
p3080
aS'tom1230321'
p3081
aS'dokonoatushi37a'
p3082
aS'Makemoneysuper'
p3083
aS'LVSlavinsya'
p3084
aS'fancyfollowers'
p3085
aS'officenabe'
p3086
aS'JackJackC'
p3087
aS'cocodrilobe'
p3088
aS'jaipradeesh'
p3089
aS'BrockTaylor1'
p3090
aS'chiie32'
p3091
aS'FastTechMoney'
p3092
aS'InMadhyaPradesh'
p3093
aS'billz1964'
p3094
aS'wadamasaki'
p3095
aS'SugarSallador'
p3096
aS'LatestIndia'
p3097
aS'LatestWorld'
p3098
aS'make_more_cash'
p3099
aS'ThiaRa_Princes'
p3100
aS'Mtzakky'
p3101
aS'buypvanow'
p3102
aS'MarkTPhoto'
p3103
aS'PerfectBodyPlan'
p3104
aS'harusameneco'
p3105
aS'Gamblinginfo'
p3106
aS'mkeisuke'
p3107
aS'yuchifura'
p3108
aS'psychiatrist118'
p3109
aS'Artoha'
p3110
aS'Koki_Fuku'
p3111
aS'RODRIGOOVALLE'
p3112
aS'aokimarie'
p3113
aS'romgii'
p3114
aS'scstaley'
p3115
aS'coopiemonz'
p3116
aS'Vikk72'
p3117
aS'hideo17'
p3118
aS'jhoncross'
p3119
aS'notRichGirl'
p3120
aS'irinahsu0829'
p3121
aS'HyunJaeHwan'
p3122
aS'TSUTAYA22'
p3123
aS'hailvb'
p3124
aS'AceAlemania'
p3125
aS'hiasobicom'
p3126
aS'genericpharma12'
p3127
aS'Rokataro'
p3128
aS'justinpleasures'
p3129
aS'hidayuki'
p3130
aS'k_kokoro_iki'
p3131
aS'nonkey_career'
p3132
aS'jesus_rl'
p3133
aS'xtinevulnerable'
p3134
aS'mugamuchunosuke'
p3135
aS'sanspo_vote'
p3136
aS'hottysextoys'
p3137
aS'hamamoto925'
p3138
aS'HarleyChua'
p3139
aS'InvestUS_Phil'
p3140
aS'Jabari2555'
p3141
aS'salitote'
p3142
aS'dreamer415131'
p3143
aS'getfarmvillebot'
p3144
aS'lodeonN'
p3145
aS'PJFitness'
p3146
aS'nagaraj43'
p3147
aS'tomofumiushiro'
p3148
aS'SkirtOfficial'
p3149
aS'QiMobile'
p3150
aS'dollarich'
p3151
aS'Rhuandeson'
p3152
aS'taio_toshiaki'
p3153
aS'ReaISteveJobs'
p3154
aS'cascao_limpo'
p3155
aS'ClubHN'
p3156
aS'chatchatti'
p3157
aS'cbrlandcom'
p3158
aS'stan_gerry'
p3159
aS'ootukaakio'
p3160
aS'ANJO_DA_PAZ'
p3161
aS'andreevaras'
p3162
aS'WallpapersDB'
p3163
aS'cameraartist'
p3164
aS'KeepGraysonHome'
p3165
asg326
g1977
sg328
g329
(S'\x07\xda\x0b\x08\x140%\x05\xed\x98'
p3166
tp3167
Rp3168
sa(dp3169
g2
(lp3170
sg274
(lp3171
S'myfreshberry'
p3172
aS'mattedmundson'
p3173
aS'NicoleGrahamMHX'
p3174
aS'roudra2010'
p3175
aS'MelissaStewartK'
p3176
aS'GreenSkyDeb'
p3177
aS'Bird_Watchers'
p3178
aS'News21stCentury'
p3179
aS'LaurieHawley'
p3180
aS'PaulAlanMorin'
p3181
aS'Rockies_NEWS140'
p3182
aS'bellsandchimes'
p3183
aS'DramaFreeWork'
p3184
aS'BBirchfie6'
p3185
aS'RaymondKokZA'
p3186
aS'owoce_warzywa'
p3187
aS'BestNewsDotCom'
p3188
aS'DCL_Real_Estate'
p3189
aS'marcosthecuban'
p3190
aS'BryBeats'
p3191
aS'mflusrnet'
p3192
aS'WorldsBest100'
p3193
aS'startupbizmastr'
p3194
aS'faydra_deon'
p3195
aS'RobinwoodChurch'
p3196
aS'LValdesV'
p3197
aS'stapledforehead'
p3198
aS'moneysystemoncl'
p3199
aS'2mexico'
p3200
aS'cways'
p3201
aS'TryNotToLaugh'
p3202
aS'LarkAMiller'
p3203
aS'4puglovers'
p3204
aS'MelindaDiazISQF'
p3205
aS'fast_thinking'
p3206
aS'shaneflem'
p3207
aS'WealthAcumen'
p3208
aS'joynissen'
p3209
aS'JennAlexandr'
p3210
aS'restorehealth2'
p3211
aS'macadaan'
p3212
aS'TRB_Main'
p3213
aS'The__J0ker'
p3214
aS'francoiskok'
p3215
aS'napoleon__hill'
p3216
aS'dougcwilliams1'
p3217
aS'judyrey'
p3218
aS'CondosVallarta'
p3219
aS'claudiamissy122'
p3220
aS'RoyalDelgoti'
p3221
aS'davidtanny'
p3222
aS'celestetaa'
p3223
aS'albertinef'
p3224
aS'hime17106c'
p3225
aS'ByHold'
p3226
aS'autumnzmapp'
p3227
aS'marcsmoney'
p3228
aS'Gemstars'
p3229
aS'Form1Lane'
p3230
aS'tvb4u'
p3231
aS'GLaraLopez'
p3232
aS'Twitcashwealth'
p3233
aS'Not_Them'
p3234
aS'hypnosis_mp3'
p3235
aS'StartupPro'
p3236
aS'Bathbombsorg'
p3237
aS'MarketProOnline'
p3238
aS'Eric_Urbane'
p3239
aS'wicara'
p3240
aS'Painters_Wanted'
p3241
aS'VegasCense'
p3242
aS'jimrohnasia'
p3243
aS'clintonbrown'
p3244
aS'Goshtasb'
p3245
aS'TheMontereyCo'
p3246
aS'IsraelRVarela'
p3247
aS'BrettRelander'
p3248
aS'ScubaClubPerth'
p3249
aS'Sherbrukka'
p3250
aS'DocWhite4U'
p3251
aS'Artists_Wanted'
p3252
aS'melisardevoe'
p3253
aS'kimclark157'
p3254
aS'beachbumbanker'
p3255
aS'gstanski'
p3256
aS'GregStanski'
p3257
aS'jcjamerica'
p3258
aS'CowboyWiseman'
p3259
aS'Tammi4Corvallis'
p3260
aS'Mindtrekker'
p3261
aS'iluvMarthasVY'
p3262
aS'MarilynTurnerOI'
p3263
aS'JayOatway'
p3264
aS'tom_om2012'
p3265
aS'andressilvaa'
p3266
aS'ThuleTrailers'
p3267
aS'TravisCBaugh'
p3268
aS'BlazersFanZone'
p3269
aS'ccybertron'
p3270
aS'LakersFanZone'
p3271
asg300
(lp3272
S'mattedmundson'
p3273
aS'nikhil_parekh'
p3274
aS'CoachBye'
p3275
aS'GreenSkyDeb'
p3276
aS'Laurie_Tossy'
p3277
aS'DianeRohlfs'
p3278
aS'PaulAlanMorin'
p3279
aS'DramaFreeWork'
p3280
aS'RaymondKokZA'
p3281
aS'DCL_Real_Estate'
p3282
aS'startupbizmastr'
p3283
aS'faydra_deon'
p3284
aS'RobinwoodChurch'
p3285
aS'LValdesV'
p3286
aS'2mexico'
p3287
aS'cways'
p3288
aS'TryNotToLaugh'
p3289
aS'LarkAMiller'
p3290
aS'4puglovers'
p3291
aS'fast_thinking'
p3292
aS'WealthAcumen'
p3293
aS'joynissen'
p3294
aS'JennAlexandr'
p3295
aS'restorehealth2'
p3296
aS'macadaan'
p3297
aS'francoiskok'
p3298
aS'napoleon__hill'
p3299
aS'judyrey'
p3300
aS'CondosVallarta'
p3301
aS'claudiamissy122'
p3302
aS'RoyalDelgoti'
p3303
aS'davidtanny'
p3304
aS'ByHold'
p3305
aS'marcsmoney'
p3306
aS'Gemstars'
p3307
aS'tvb4u'
p3308
aS'Twitcashwealth'
p3309
aS'Not_Them'
p3310
aS'hypnosis_mp3'
p3311
aS'StartupPro'
p3312
aS'GLaraLopez'
p3313
aS'vicegandako'
p3314
aS'maxenemagalona'
p3315
aS'DefineBroken'
p3316
aS'iansomerhalder'
p3317
aS'Eric_Urbane'
p3318
aS'wicara'
p3319
aS'jimrohnasia'
p3320
aS'clintonbrown'
p3321
aS'Goshtasb'
p3322
aS'TheMontereyCo'
p3323
aS'IsraelRVarela'
p3324
aS'BrettRelander'
p3325
aS'ScubaClubPerth'
p3326
aS'Sherbrukka'
p3327
aS'DocWhite4U'
p3328
aS'kimclark157'
p3329
aS'beachbumbanker'
p3330
aS'Mindtrekker'
p3331
aS'beasocial1'
p3332
aS'iluvMarthasVY'
p3333
aS'JayOatway'
p3334
aS'tom_om2012'
p3335
aS'andressilvaa'
p3336
aS'TravisCBaugh'
p3337
aS'FreedomOffshore'
p3338
aS'JoseLewis2728'
p3339
aS'SynergyBizNet'
p3340
aS'joeypinkney'
p3341
aS'1SuccessMentor'
p3342
aS'Property_Sydney'
p3343
aS'wakooz'
p3344
aS'DaveAnderson100'
p3345
aS'nenelilly'
p3346
aS'douglasi'
p3347
aS'ilovethezodiak'
p3348
aS'FreeCashGifts'
p3349
aS'WillRogersUSA'
p3350
aS'Orrin_Woodward'
p3351
aS'MobiWeb'
p3352
aS'MagicSauceMedia'
p3353
aS'nubiansensation'
p3354
aS'RyanParenti'
p3355
aS'LiliHuitzacua97'
p3356
aS'PHamousQuotes'
p3357
aS'infogempabmg'
p3358
aS'coolestquotes'
p3359
aS'seoservice7979'
p3360
aS'jaydurand'
p3361
aS'BookYap'
p3362
aS'MrFollowBackEmp'
p3363
aS'HealingHologram'
p3364
aS'RascalTweets'
p3365
aS'RocketsFanZone'
p3366
aS'LinkedInQueen'
p3367
aS'trackbuzzerllc'
p3368
aS'AndreaSCarr'
p3369
aS'Rob_Ross'
p3370
aS'Annalilie'
p3371
aS'InternetGuru7'
p3372
asg326
g3013
sg328
g329
(S'\x07\xda\x0b\x08\x1400\x08\xf8\x1c'
p3373
tp3374
Rp3375
sa(dp3376
g2
(lp3377
(dp3378
S'favorited'
p3379
I00
sS'truncated'
p3380
I00
sS'text'
p3381
VPhoto: Underworld \u2026week begins now. I really like this movie\u2026the vampires think they need to kill the... http://tumblr.com/xpxp5h3bc
p3382
sS'created_at'
p3383
S'Tue Nov 09 01:48:33 +0000 2010'
p3384
sS'retweeted'
p3385
I00
sS'coordinates'
p3386
NsS'in_reply_to_status_id'
p3387
NsS'place'
p3388
NsS'in_reply_to_screen_name'
p3389
NsS'retweet_count'
p3390
NsS'geo'
p3391
NsS'id'
p3392
I1813362576986112
sa(dp3393
S'favorited'
p3394
I00
sS'truncated'
p3395
I00
sS'text'
p3396
S"DON'T FORGET - This is going to be AWESOME - The Walking Dead premiers tonight on AMC! LINK GOES TO DETAILS. http://tumblr.com/xpxox60ut"
p3397
sS'created_at'
p3398
S'Sun Nov 07 16:09:47 +0000 2010'
p3399
sS'retweeted'
p3400
I00
sS'coordinates'
p3401
NsS'in_reply_to_status_id'
p3402
NsS'place'
p3403
NsS'in_reply_to_screen_name'
p3404
NsS'retweet_count'
p3405
NsS'geo'
p3406
NsS'id'
p3407
I1305319334481920
sa(dp3408
S'favorited'
p3409
I00
sS'truncated'
p3410
I00
sS'text'
p3411
VMovies and Drinking: Zombieland - whatsyourdamagerachel: Yes\u2026I APPROVE. http://tumblr.com/xpxomnq7y
p3412
sS'created_at'
p3413
S'Fri Nov 05 18:25:48 +0000 2010'
p3414
sS'retweeted'
p3415
I00
sS'coordinates'
p3416
NsS'in_reply_to_status_id'
p3417
NsS'place'
p3418
NsS'in_reply_to_screen_name'
p3419
NsS'retweet_count'
p3420
NsS'geo'
p3421
NsS'id'
p3422
I614774656204800
sa(dp3423
S'favorited'
p3424
I00
sS'truncated'
p3425
I00
sS'text'
p3426
S'Photo: zombify: A whole gallery of them. Awesome and gross at the same time. http://tumblr.com/xpxomcvkj'
p3427
sS'created_at'
p3428
S'Fri Nov 05 16:47:52 +0000 2010'
p3429
sS'retweeted'
p3430
I00
sS'coordinates'
p3431
NsS'in_reply_to_status_id'
p3432
NsS'place'
p3433
NsS'in_reply_to_screen_name'
p3434
NsS'retweet_count'
p3435
NsS'geo'
p3436
NsS'id'
p3437
I590131165667328
sa(dp3438
S'favorited'
p3439
I00
sS'truncated'
p3440
I00
sS'text'
p3441
S'I Failed at the Halloween Week Thing. - This is just to let anyone coming to the blog after Halloween know... http://tumblr.com/xpxohjr4a'
p3442
sS'created_at'
p3443
S'Thu Nov 04 17:55:46 +0000 2010'
p3444
sS'retweeted'
p3445
I00
sS'coordinates'
p3446
NsS'in_reply_to_status_id'
p3447
NsS'place'
p3448
NsS'in_reply_to_screen_name'
p3449
NsS'retweet_count'
p3450
NsS'geo'
p3451
NsS'id'
p3452
I29688022912
sa(dp3453
S'favorited'
p3454
I00
sS'truncated'
p3455
I00
sS'text'
p3456
VPhoto: fuckyeahrhpscaps: Last one for the day! WAY TOO CUTE. I love these two. Hearts forever \u2665 http://tumblr.com/xpxnciefu
p3457
sS'created_at'
p3458
S'Wed Oct 27 02:38:10 +0000 2010'
p3459
sS'retweeted'
p3460
I00
sS'coordinates'
p3461
NsS'in_reply_to_status_id'
p3462
NsS'place'
p3463
NsS'in_reply_to_screen_name'
p3464
NsS'retweet_count'
p3465
NsS'geo'
p3466
NsS'id'
p3467
I28852376223
sa(dp3468
S'favorited'
p3469
I00
sS'truncated'
p3470
I00
sS'text'
p3471
VPhoto: fuckyeahrhpscaps: Seriously! *sings* \u266a Ohhh Braaaad \u266a :D http://tumblr.com/xpxnc3ctt
p3472
sS'created_at'
p3473
S'Wed Oct 27 01:16:30 +0000 2010'
p3474
sS'retweeted'
p3475
I00
sS'coordinates'
p3476
NsS'in_reply_to_status_id'
p3477
NsS'place'
p3478
NsS'in_reply_to_screen_name'
p3479
NsS'retweet_count'
p3480
NsS'geo'
p3481
NsS'id'
p3482
I28845688315
sa(dp3483
S'favorited'
p3484
I00
sS'truncated'
p3485
I00
sS'text'
p3486
VPhoto: fuckyeahrhpscaps: Ahhh\u2026that\u2019s today ;) http://tumblr.com/xpxnbor2s
p3487
sS'created_at'
p3488
S'Tue Oct 26 23:53:06 +0000 2010'
p3489
sS'retweeted'
p3490
I00
sS'coordinates'
p3491
NsS'in_reply_to_status_id'
p3492
NsS'place'
p3493
NsS'in_reply_to_screen_name'
p3494
NsS'retweet_count'
p3495
NsS'geo'
p3496
NsS'id'
p3497
I28838465992
sa(dp3498
S'favorited'
p3499
I00
sS'truncated'
p3500
I00
sS'text'
p3501
VPhoto: This one I made for Susan Sarandon\u2019s birthday 2010. So cute\u2026he\u2019s such a tease omg. http://tumblr.com/xpxnbav18
p3502
sS'created_at'
p3503
S'Tue Oct 26 22:31:31 +0000 2010'
p3504
sS'retweeted'
p3505
I00
sS'coordinates'
p3506
NsS'in_reply_to_status_id'
p3507
NsS'place'
p3508
NsS'in_reply_to_screen_name'
p3509
NsS'retweet_count'
p3510
NsS'geo'
p3511
NsS'id'
p3512
I28831588440
sa(dp3513
S'favorited'
p3514
I00
sS'truncated'
p3515
I00
sS'text'
p3516
S'Photo: One of the first ones I ever made for fuckyeahrhpscaps. http://tumblr.com/xpxnaxvsv'
p3517
sS'created_at'
p3518
S'Tue Oct 26 21:09:41 +0000 2010'
p3519
sS'retweeted'
p3520
I00
sS'coordinates'
p3521
NsS'in_reply_to_status_id'
p3522
NsS'place'
p3523
NsS'in_reply_to_screen_name'
p3524
NsS'retweet_count'
p3525
NsS'geo'
p3526
NsS'id'
p3527
I28825614152
sa(dp3528
S'favorited'
p3529
I00
sS'truncated'
p3530
I00
sS'text'
p3531
S'Audio: I know I said in the last post to please enjoy pictures from Dammit Janet, but I almost forgot about... http://tumblr.com/xpxnaloji'
p3532
sS'created_at'
p3533
S'Tue Oct 26 19:46:21 +0000 2010'
p3534
sS'retweeted'
p3535
I00
sS'coordinates'
p3536
NsS'in_reply_to_status_id'
p3537
NsS'place'
p3538
NsS'in_reply_to_screen_name'
p3539
NsS'retweet_count'
p3540
NsS'geo'
p3541
NsS'id'
p3542
I28820003731
sa(dp3543
S'favorited'
p3544
I00
sS'truncated'
p3545
I00
sS'text'
p3546
VPhoto: Dammit Janet \u203a Brad Majors: Hey, Janet Janet Weiss: Yes, Brad? Brad Majors: I\u2019ve got something to say... http://tumblr.com/xpxnac3i0
p3547
sS'created_at'
p3548
S'Tue Oct 26 18:23:10 +0000 2010'
p3549
sS'retweeted'
p3550
I00
sS'coordinates'
p3551
NsS'in_reply_to_status_id'
p3552
NsS'place'
p3553
NsS'in_reply_to_screen_name'
p3554
NsS'retweet_count'
p3555
NsS'geo'
p3556
NsS'id'
p3557
I28814523885
sa(dp3558
S'favorited'
p3559
I00
sS'truncated'
p3560
I00
sS'text'
p3561
VPhoto: A wedding! Oh\u2026how nice! http://tumblr.com/xpxn7i7dr
p3562
sS'created_at'
p3563
S'Tue Oct 26 02:37:51 +0000 2010'
p3564
sS'retweeted'
p3565
I00
sS'coordinates'
p3566
NsS'in_reply_to_status_id'
p3567
NsS'place'
p3568
NsS'in_reply_to_screen_name'
p3569
NsS'retweet_count'
p3570
NsS'geo'
p3571
NsS'id'
p3572
I28751732979
sa(dp3573
S'favorited'
p3574
I00
sS'truncated'
p3575
I00
sS'text'
p3576
S'Photo: Not one of my best animations, but you can see why I wanted them. http://tumblr.com/xpxn7438o'
p3577
sS'created_at'
p3578
S'Tue Oct 26 01:22:55 +0000 2010'
p3579
sS'retweeted'
p3580
I00
sS'coordinates'
p3581
NsS'in_reply_to_status_id'
p3582
NsS'place'
p3583
NsS'in_reply_to_screen_name'
p3584
NsS'retweet_count'
p3585
NsS'geo'
p3586
NsS'id'
p3587
I28745505141
sa(dp3588
S'favorited'
p3589
I00
sS'truncated'
p3590
I00
sS'text'
p3591
VPhoto: Aaaand\u2026fade-in to the church! http://tumblr.com/xpxn6nj6k
p3592
sS'created_at'
p3593
S'Mon Oct 25 23:52:49 +0000 2010'
p3594
sS'retweeted'
p3595
I00
sS'coordinates'
p3596
NsS'in_reply_to_status_id'
p3597
NsS'place'
p3598
NsS'in_reply_to_screen_name'
p3599
NsS'retweet_count'
p3600
NsS'geo'
p3601
NsS'id'
p3602
I28737983479
sa(dp3603
S'favorited'
p3604
I00
sS'truncated'
p3605
I00
sS'text'
p3606
S'Audio: Science Fiction Double Feature http://tumblr.com/xpxn6922t'
p3607
sS'created_at'
p3608
S'Mon Oct 25 22:31:00 +0000 2010'
p3609
sS'retweeted'
p3610
I00
sS'coordinates'
p3611
NsS'in_reply_to_status_id'
p3612
NsS'place'
p3613
NsS'in_reply_to_screen_name'
p3614
NsS'retweet_count'
p3615
NsS'geo'
p3616
NsS'id'
p3617
I28731200401
sa(dp3618
S'favorited'
p3619
I00
sS'truncated'
p3620
I00
sS'text'
p3621
VPhoto: Science Fiction Double Feature Lyrics: \u203a Michael Rennie was ill The Day the Earth Stood Still But he... http://tumblr.com/xpxn5vi8l
p3622
sS'created_at'
p3623
S'Mon Oct 25 21:07:44 +0000 2010'
p3624
sS'retweeted'
p3625
I00
sS'coordinates'
p3626
NsS'in_reply_to_status_id'
p3627
NsS'place'
p3628
NsS'in_reply_to_screen_name'
p3629
NsS'retweet_count'
p3630
NsS'geo'
p3631
NsS'id'
p3632
I28725064629
sa(dp3633
S'favorited'
p3634
I00
sS'truncated'
p3635
I00
sS'text'
p3636
S'Video: Part 3 of 3. This is the best part! http://tumblr.com/xpxmr8zi9'
p3637
sS'created_at'
p3638
S'Fri Oct 22 22:17:09 +0000 2010'
p3639
sS'retweeted'
p3640
I00
sS'coordinates'
p3641
NsS'in_reply_to_status_id'
p3642
NsS'place'
p3643
NsS'in_reply_to_screen_name'
p3644
NsS'retweet_count'
p3645
NsS'geo'
p3646
NsS'id'
p3647
I28444593093
sa(dp3648
S'favorited'
p3649
I00
sS'truncated'
p3650
I00
sS'text'
p3651
S'Video: Part 2 of 3. http://tumblr.com/xpxmqs3es'
p3652
sS'created_at'
p3653
S'Fri Oct 22 20:06:09 +0000 2010'
p3654
sS'retweeted'
p3655
I00
sS'coordinates'
p3656
NsS'in_reply_to_status_id'
p3657
NsS'place'
p3658
NsS'in_reply_to_screen_name'
p3659
NsS'retweet_count'
p3660
NsS'geo'
p3661
NsS'id'
p3662
I28435803650
sa(dp3663
S'favorited'
p3664
I00
sS'truncated'
p3665
I00
sS'text'
p3666
VVideo: I forgot to post these last week. Part 1 of 3. Brad went to Ripley\u2019s Odditorium. This is\u2026sort of\u2026kind... http://tumblr.com/xpxmqdf9c
p3667
sS'created_at'
p3668
S'Fri Oct 22 17:55:09 +0000 2010'
p3669
sS'retweeted'
p3670
I00
sS'coordinates'
p3671
NsS'in_reply_to_status_id'
p3672
NsS'place'
p3673
NsS'in_reply_to_screen_name'
p3674
NsS'retweet_count'
p3675
NsS'geo'
p3676
NsS'id'
p3677
I28426825016
sasg274
(lp3678
S'Ashleebell99'
p3679
aS'joelcomiskey'
p3680
aS'Roseedwards66'
p3681
aS'majestik_Vi48'
p3682
aS'pAmsLoVe'
p3683
aS'snckrz'
p3684
aS'beam_ad'
p3685
aS'fouryestrump'
p3686
aS'itanytime'
p3687
aS'BeyondWages'
p3688
aS'justmessing'
p3689
aS'_AellaBella_'
p3690
aS'carlotta_valdes'
p3691
aS'Cats_and_me'
p3692
aS'Charles_Twining'
p3693
aS'DannyAyalon'
p3694
aS'SarahCohol'
p3695
aS'FakeAssFacts'
p3696
aS'NapaFord'
p3697
aS'jsundmanus'
p3698
aS'ZZ0'
p3699
aS'CC_You_In_Hell'
p3700
aS'MrsEllieGray'
p3701
aS'ArtJonak'
p3702
aS'dcagle'
p3703
aS'NewEggDiscount'
p3704
aS'mealfrog'
p3705
aS'CharlsieTooten'
p3706
aS'EhfarEnt'
p3707
aS'LesleySartin'
p3708
aS'wayne1001'
p3709
aS'Creativeffects'
p3710
aS'AboutTheClick'
p3711
aS'uniquitybuilder'
p3712
aS'thesmogger'
p3713
aS'karen_wigs'
p3714
aS'DawnDishSoap'
p3715
aS'JohnDecan'
p3716
aS'davew66'
p3717
aS'Disalmanac'
p3718
aS'tweepml'
p3719
aS'fyeahrhpscaps'
p3720
aS'Franklin_MottBT'
p3721
aS'TrueBloodWiki'
p3722
aS'lebanoncash'
p3723
aS'Lisa_FowlerBT'
p3724
aS'TBbuzz'
p3725
aS'TrueBloodRP'
p3726
aS'SheriffNorthman'
p3727
aS'Coby_FowlerBT'
p3728
aS'MustReadNews'
p3729
aS'Rperez137'
p3730
aS'Presidencia_Ec'
p3731
aS'tony__d'
p3732
aS'mosaicholidays'
p3733
aS'JuliaGillard'
p3734
aS'ccopley'
p3735
aS'george48honda'
p3736
aS'bhfeodula32j2'
p3737
aS'sammywoose'
p3738
aS'cspeeders'
p3739
aS'FCG_010'
p3740
aS'almandjoy11'
p3741
aS'QuinnBT'
p3742
aS'wheaterbicks'
p3743
aS'DrLudwigTB'
p3744
aS'subaru_usa'
p3745
aS'spill_updates'
p3746
aS'BPclaims'
p3747
aS'AndyBfleur'
p3748
aS'MickensTommy'
p3749
aS'DebbiePTB'
p3750
aS'QueenSophieA'
p3751
aS'ChowTB'
p3752
aS'VampHadley'
p3753
aS'JessicaHamby'
p3754
aS'TerryBellefle'
p3755
aS'EricNorthman'
p3756
aS'LafayetteTB'
p3757
aS'PamVampTB'
p3758
aS'WerewitchHallow'
p3759
aS'Tara_ThorntonBT'
p3760
aS'JoeLeeMickens'
p3761
aS'VampireBill'
p3762
aS'SookieBonTemps'
p3763
aS'TaraBonTemps'
p3764
aS'FangtasiaGinger'
p3765
aS'FangtasiaYvetta'
p3766
aS'RemySavoyRD'
p3767
aS'SamMerlotteBT'
p3768
aS'Eric_ofArea5'
p3769
aS'ArleneFowler'
p3770
aS'FunWithHats'
p3771
aS'TrueBloodHBO'
p3772
aS'iQUIT4U'
p3773
aS'iDISOWN4U'
p3774
aS'MarySwope'
p3775
aS'iDUMP4U'
p3776
aS'someteenagegirl'
p3777
aS'Bradman365'
p3778
asg300
(lp3779
S'mattedmundson'
p3780
aS'Ashleebell99'
p3781
aS'constanthealth'
p3782
aS'joelcomiskey'
p3783
aS'Roseedwards66'
p3784
aS'majestik_Vi48'
p3785
aS'pAmsLoVe'
p3786
aS'snckrz'
p3787
aS'TelevisionInfo_'
p3788
aS'beam_ad'
p3789
aS'moblewshunit'
p3790
aS'TechUpdating_'
p3791
aS'fouryestrump'
p3792
aS'itanytime'
p3793
aS'justmessing'
p3794
aS'BeyondWages'
p3795
aS'Bradman2Nite'
p3796
aS'_AellaBella_'
p3797
aS'carlotta_valdes'
p3798
aS'LesleySartin'
p3799
aS'DannyAyalon'
p3800
aS'GojaSF'
p3801
aS'SarahCohol'
p3802
aS'FakeAssFacts'
p3803
aS'ebertchicago'
p3804
aS'adamcarolla'
p3805
aS'NapaFord'
p3806
aS'jsundmanus'
p3807
aS'oil_spill_'
p3808
aS'NewEggDiscount'
p3809
aS'ZZ0'
p3810
aS'CC_You_In_Hell'
p3811
aS'MrsEllieGray'
p3812
aS'dcagle'
p3813
aS'ArtJonak'
p3814
aS'EhfarEnt'
p3815
aS'wayne1001'
p3816
aS'Jaifae'
p3817
aS'LongshadowTB'
p3818
aS'Vampire_Percy'
p3819
aS'LukePreston_BT'
p3820
aS'thesmogger'
p3821
aS'ZerosB4TheOne'
p3822
aS'karen_wigs'
p3823
aS'JohnDecan'
p3824
aS'davew66'
p3825
aS'Survival_Sun'
p3826
aS'STFUParents'
p3827
aS'neilhimself'
p3828
aS'greggrunberg'
p3829
aS'1capplegate'
p3830
aS'danieltosh'
p3831
aS'SadKeanu'
p3832
aS'emailsfromanass'
p3833
aS'Seanbabydotcom'
p3834
aS'BOCAMeatless'
p3835
aS'JohnStamos'
p3836
aS'zakresnick'
p3837
aS'Richter_Andy'
p3838
aS'Alyssa_Milano'
p3839
aS'NeweggHotDeals'
p3840
aS'Newegg'
p3841
aS'IJasonAlexander'
p3842
aS'Popsicle'
p3843
aS'RealKeithPowell'
p3844
aS'IvankaTrump'
p3845
aS'blues_traveler'
p3846
aS'mobypicture'
p3847
aS'adamlambert'
p3848
aS'ActuallyNPH'
p3849
aS'nealstephenson'
p3850
aS'pennjillette'
p3851
aS'HandfulofLuvin'
p3852
aS'zombiesandbacon'
p3853
aS'mealfrog'
p3854
aS'OMGFacts'
p3855
aS'Charlottimdxk'
p3856
aS'NathanFillion'
p3857
aS'LindaStewart11Z'
p3858
aS'WildFacts'
p3859
aS'BrentSpiner'
p3860
aS'google'
p3861
aS'TABASCO'
p3862
aS'DawnDishSoap'
p3863
aS'uniquitybuilder'
p3864
aS'rainnwilson'
p3865
aS'ladygaga'
p3866
aS'TheUptownNapa'
p3867
aS'rustyrockets'
p3868
aS'catdeeley'
p3869
aS'FartWHO'
p3870
aS'gracehelbig'
p3871
aS'grantimahara'
p3872
aS'JimCarrey'
p3873
aS'DalaiLama'
p3874
aS'kevin_nealon'
p3875
aS'pattonoswalt'
p3876
aS'tomhanks'
p3877
aS'levarburton'
p3878
aS'LeoDiCaprio'
p3879
asg326
g3044
sg328
g329
(S'\x07\xda\x0b\x08\x140:\x02\x06j'
p3880
tp3881
Rp3882
sa(dp3883
g2
(lp3884
(dp3885
S'favorited'
p3886
I00
sS'truncated'
p3887
I00
sS'text'
p3888
S'Who ever decided to call Halloween candy fun size must have a small mouth. #justsaying'
p3889
sS'created_at'
p3890
S'Tue Nov 02 02:59:08 +0000 2010'
p3891
sS'retweeted'
p3892
I00
sS'coordinates'
p3893
NsS'in_reply_to_status_id'
p3894
NsS'in_reply_to_screen_name'
p3895
NsS'place'
p3896
NsS'retweet_count'
p3897
NsS'geo'
p3898
NsS'id'
p3899
I29433667319
sa(dp3900
S'favorited'
p3901
I00
sS'truncated'
p3902
I00
sS'text'
p3903
S"Entries for #TrueBlood comic contest is now closed. Thank's to all who played! http://t.co/xKxOFsd via @TrueBloodHBO"
p3904
sS'created_at'
p3905
S'Tue Nov 02 01:46:22 +0000 2010'
p3906
sS'retweeted'
p3907
I00
sS'coordinates'
p3908
NsS'in_reply_to_status_id'
p3909
NsS'in_reply_to_screen_name'
p3910
NsS'place'
p3911
NsS'retweet_count'
p3912
NsS'geo'
p3913
NsS'id'
p3914
I29427700461
sa(dp3915
S'favorited'
p3916
I00
sS'truncated'
p3917
I00
sS'text'
p3918
S'I am watching True Blood #TrueBlood (via @GetGlue) http://bit.ly/9Ev8TZ'
p3919
sS'created_at'
p3920
S'Tue Nov 02 00:58:16 +0000 2010'
p3921
sS'retweeted'
p3922
I00
sS'coordinates'
p3923
NsS'in_reply_to_status_id'
p3924
NsS'in_reply_to_screen_name'
p3925
NsS'place'
p3926
NsS'retweet_count'
p3927
NsS'geo'
p3928
NsS'id'
p3929
I29423830324
sa(dp3930
S'favorited'
p3931
I00
sS'truncated'
p3932
I00
sS'text'
p3933
S'@Echelon913 Love it!'
p3934
sS'created_at'
p3935
S'Tue Nov 02 00:53:52 +0000 2010'
p3936
sS'retweeted'
p3937
I00
sS'coordinates'
p3938
NsS'in_reply_to_status_id'
p3939
I29418528213
sS'in_reply_to_screen_name'
p3940
S'Echelon913'
p3941
sS'place'
p3942
NsS'retweet_count'
p3943
NsS'geo'
p3944
NsS'id'
p3945
I29423485380
sa(dp3946
S'favorited'
p3947
I00
sS'truncated'
p3948
I00
sS'text'
p3949
S'RT @MizzezHollywood: got my #trueblood comic love this cover whit @ericnorthman n sookie n jess n lafayette n bill http://twitpic.com/332ft8'
p3950
sS'created_at'
p3951
S'Mon Nov 01 23:46:15 +0000 2010'
p3952
sS'retweeted'
p3953
I00
sS'coordinates'
p3954
NsS'in_reply_to_status_id'
p3955
NsS'in_reply_to_screen_name'
p3956
NsS'place'
p3957
NsS'retweet_count'
p3958
NsS'geo'
p3959
NsS'id'
p3960
I29418167177
sa(dp3961
S'favorited'
p3962
I00
sS'truncated'
p3963
I00
sS'text'
p3964
S"Ya only got 'bout an hour to go to try and win a #TrueBlood comic. http://t.co/OVj1HjJ via"
p3965
sS'created_at'
p3966
S'Mon Nov 01 23:45:10 +0000 2010'
p3967
sS'retweeted'
p3968
I00
sS'coordinates'
p3969
NsS'in_reply_to_status_id'
p3970
NsS'in_reply_to_screen_name'
p3971
NsS'place'
p3972
NsS'retweet_count'
p3973
NsS'geo'
p3974
NsS'id'
p3975
I29418081852
sa(dp3976
S'favorited'
p3977
I00
sS'truncated'
p3978
I00
sS'text'
p3979
S'RT @TerranceDlibra: I will be selling V tonight and tomorrow if anyone needs any... and make sure you TIP YOUR WAITRESS... ;)'
p3980
sS'created_at'
p3981
S'Mon Nov 01 15:36:15 +0000 2010'
p3982
sS'retweeted'
p3983
I00
sS'coordinates'
p3984
NsS'in_reply_to_status_id'
p3985
NsS'in_reply_to_screen_name'
p3986
NsS'place'
p3987
NsS'retweet_count'
p3988
NsS'geo'
p3989
NsS'id'
p3990
I29382814780
sa(dp3991
S'favorited'
p3992
I00
sS'truncated'
p3993
I00
sS'text'
p3994
S"RT @ParaMaloney: I might like you more ;) RT @pieinthemorning: one day i'm gonna be like lafayette from true blood...just not gay"
p3995
sS'created_at'
p3996
S'Mon Nov 01 15:34:02 +0000 2010'
p3997
sS'retweeted'
p3998
I00
sS'coordinates'
p3999
NsS'in_reply_to_status_id'
p4000
NsS'in_reply_to_screen_name'
p4001
NsS'place'
p4002
NsS'retweet_count'
p4003
NsS'geo'
p4004
NsS'id'
p4005
I29382633493
sa(dp4006
S'favorited'
p4007
I00
sS'truncated'
p4008
I00
sS'text'
p4009
S'Work it! RT @DorothyDreyer: Okay, as promised, here I am as @LafayetteTB ... oh my *blushes* http://twitpic.com/32yw4v'
p4010
sS'created_at'
p4011
S'Mon Nov 01 15:32:12 +0000 2010'
p4012
sS'retweeted'
p4013
I00
sS'coordinates'
p4014
NsS'in_reply_to_status_id'
p4015
NsS'in_reply_to_screen_name'
p4016
NsS'place'
p4017
NsS'retweet_count'
p4018
NsS'geo'
p4019
NsS'id'
p4020
I29382484115
sa(dp4021
S'favorited'
p4022
I00
sS'truncated'
p4023
I00
sS'text'
p4024
S'Last day to write a #TrueBlood scene to win a comic. Ya got til 9pm ET. http://truebloodtwitter.com/comic'
p4025
sS'created_at'
p4026
S'Mon Nov 01 15:31:37 +0000 2010'
p4027
sS'retweeted'
p4028
I00
sS'coordinates'
p4029
NsS'in_reply_to_status_id'
p4030
NsS'in_reply_to_screen_name'
p4031
NsS'place'
p4032
NsS'retweet_count'
p4033
NsS'geo'
p4034
NsS'id'
p4035
I29382437807
sa(dp4036
S'favorited'
p4037
I00
sS'truncated'
p4038
I00
sS'text'
p4039
S'Somebody in this pic is sexy!  RT @lizneilvoss: A #trueblood Halloween: Sookie, Lafayette, Terry, and Arlene http://twitpic.com/32umd4'
p4040
sS'created_at'
p4041
S'Mon Nov 01 15:29:49 +0000 2010'
p4042
sS'retweeted'
p4043
I00
sS'coordinates'
p4044
NsS'in_reply_to_status_id'
p4045
NsS'in_reply_to_screen_name'
p4046
NsS'place'
p4047
NsS'retweet_count'
p4048
NsS'geo'
p4049
NsS'id'
p4050
I29382285603
sa(dp4051
S'favorited'
p4052
I00
sS'truncated'
p4053
I00
sS'text'
p4054
S'RT @NeonDiscoLadosh: The gays are gagging. The st8s are confused. #Lafayette #Halloweencostumes @LafayetteTB'
p4055
sS'created_at'
p4056
S'Mon Nov 01 05:28:57 +0000 2010'
p4057
sS'retweeted'
p4058
I00
sS'coordinates'
p4059
NsS'in_reply_to_status_id'
p4060
NsS'in_reply_to_screen_name'
p4061
NsS'place'
p4062
NsS'retweet_count'
p4063
NsS'geo'
p4064
NsS'id'
p4065
I29345916783
sa(dp4066
S'favorited'
p4067
I00
sS'truncated'
p4068
I00
sS'text'
p4069
S'Happy Halloween, hookuhs!'
p4070
sS'created_at'
p4071
S'Mon Nov 01 02:07:34 +0000 2010'
p4072
sS'retweeted'
p4073
I00
sS'coordinates'
p4074
NsS'in_reply_to_status_id'
p4075
NsS'in_reply_to_screen_name'
p4076
NsS'place'
p4077
NsS'retweet_count'
p4078
NsS'geo'
p4079
NsS'id'
p4080
I29333106178
sa(dp4081
S'favorited'
p4082
I00
sS'truncated'
p4083
I00
sS'text'
p4084
S"RT @vampire_hannah: @LafayetteTB 1st of 2 eric northman costume (didn't have a wig ): ) http://yfrog.com/gi4sgij"
p4085
sS'created_at'
p4086
S'Mon Nov 01 00:26:11 +0000 2010'
p4087
sS'retweeted'
p4088
I00
sS'coordinates'
p4089
NsS'in_reply_to_status_id'
p4090
NsS'in_reply_to_screen_name'
p4091
NsS'place'
p4092
NsS'retweet_count'
p4093
NsS'geo'
p4094
NsS'id'
p4095
I29325409402
sa(dp4096
S'favorited'
p4097
I00
sS'truncated'
p4098
I00
sS'text'
p4099
S"Some ditch as usual! RT @VampHag4Life: @LafayetteTB Where we workin' tomorrow? http://yfrog.com/n7myrgj"
p4100
sS'created_at'
p4101
S'Mon Nov 01 00:25:36 +0000 2010'
p4102
sS'retweeted'
p4103
I00
sS'coordinates'
p4104
NsS'in_reply_to_status_id'
p4105
NsS'in_reply_to_screen_name'
p4106
NsS'place'
p4107
NsS'retweet_count'
p4108
NsS'geo'
p4109
NsS'id'
p4110
I29325361445
sa(dp4111
S'favorited'
p4112
I00
sS'truncated'
p4113
I00
sS'text'
p4114
S"RT @jennimurillo: @LafayetteTB I'm Sookie and my daughter is Lady Gaga!  Hollaaaa!!! http://picbounce.com/2f0ek"
p4115
sS'created_at'
p4116
S'Mon Nov 01 00:24:35 +0000 2010'
p4117
sS'retweeted'
p4118
I00
sS'coordinates'
p4119
NsS'in_reply_to_status_id'
p4120
NsS'in_reply_to_screen_name'
p4121
NsS'place'
p4122
NsS'retweet_count'
p4123
NsS'geo'
p4124
NsS'id'
p4125
I29325279507
sa(dp4126
S'favorited'
p4127
I00
sS'truncated'
p4128
I00
sS'text'
p4129
S"Don't let Sam see those! RT @_sammiiibby check this waitress out. I've been bitten ... By @EricNorthman ;) http://twitpic.com/32qdvk"
p4130
sS'created_at'
p4131
S'Sun Oct 31 21:46:45 +0000 2010'
p4132
sS'retweeted'
p4133
I00
sS'coordinates'
p4134
NsS'in_reply_to_status_id'
p4135
NsS'in_reply_to_screen_name'
p4136
NsS'place'
p4137
NsS'retweet_count'
p4138
NsS'geo'
p4139
NsS'id'
p4140
I29313247218
sa(dp4141
S'favorited'
p4142
I00
sS'truncated'
p4143
I00
sS'text'
p4144
S'I dunno baby but yous got the bleeds! RT @JxantoxB: Do i like you? @LafayetteTB http://yfrog.com/77pnyj'
p4145
sS'created_at'
p4146
S'Sun Oct 31 21:44:24 +0000 2010'
p4147
sS'retweeted'
p4148
I00
sS'coordinates'
p4149
NsS'in_reply_to_status_id'
p4150
NsS'in_reply_to_screen_name'
p4151
NsS'place'
p4152
NsS'retweet_count'
p4153
NsS'geo'
p4154
NsS'id'
p4155
I29313084288
sa(dp4156
S'favorited'
p4157
I00
sS'truncated'
p4158
I00
sS'text'
p4159
S'RT @KimbooDarling: BabyVamp Jessica checking in with @LafayetteTB for her shift. http://yfrog.com/n2e4wnj'
p4160
sS'created_at'
p4161
S'Sun Oct 31 21:42:53 +0000 2010'
p4162
sS'retweeted'
p4163
I00
sS'coordinates'
p4164
NsS'in_reply_to_status_id'
p4165
NsS'in_reply_to_screen_name'
p4166
NsS'place'
p4167
NsS'retweet_count'
p4168
NsS'geo'
p4169
NsS'id'
p4170
I29312978364
sasg274
(lp4171
S'JMAPainters'
p4172
aS'emilyebusch'
p4173
aS'Usouph'
p4174
aS'ThatBlokeSean'
p4175
aS'Spike_Gremlin'
p4176
aS'shawn_kyles'
p4177
aS'IAmClaireTomich'
p4178
aS'RJN223'
p4179
aS'elliwroberts'
p4180
aS'scattysara'
p4181
aS'JuergenHerzog'
p4182
aS'Psycho_Fluff'
p4183
aS'ohgeelato'
p4184
aS'SophFallenstar'
p4185
aS'tinyKreole'
p4186
aS'HotTopicJxn'
p4187
aS'ChristyHostrwsr'
p4188
aS'Patrick_wilsonP'
p4189
aS'DestreysArms'
p4190
aS'Vampiric_Joker'
p4191
aS'L_Strang'
p4192
aS'MraMiya'
p4193
aS'SamMerlotteTB'
p4194
aS'beckyperez88'
p4195
aS'hannahmontanner'
p4196
aS'carolperestelo_'
p4197
aS'littlevixen21'
p4198
aS'Jules_Daisies'
p4199
aS'itschan87'
p4200
aS'Zsadist_NYjail'
p4201
aS'sammytore'
p4202
aS'SexyVKatherine'
p4203
aS'hollyhellbent13'
p4204
aS'jakeperry92'
p4205
aS'Godric518'
p4206
aS'ShannaElizaOx'
p4207
aS'sashabc'
p4208
aS'ProfCrenshaw'
p4209
aS'NotoriousJOE1'
p4210
aS'purpleindica'
p4211
aS'chantelle_m9472'
p4212
aS'PamelaR__TB'
p4213
aS'DesiP30'
p4214
aS'thymeforhemp'
p4215
aS'VampTB'
p4216
aS'theresemeyer1'
p4217
aS'BiloxiBleau'
p4218
aS'CarleyFaeSC'
p4219
aS'KungFooRagDoll'
p4220
aS'Shawn_BonTemps'
p4221
aS'MsHenriques'
p4222
aS'Cheebs_kush'
p4223
aS'Laura12F'
p4224
aS'XxFlashcryXx'
p4225
aS'weedebsdixon'
p4226
aS'Traddding'
p4227
aS'Urban_Books'
p4228
aS'lafayetteFTW'
p4229
aS'Intercounty_UK'
p4230
aS'diewelfenburg'
p4231
aS'CattyCass'
p4232
aS'_HushHush'
p4233
aS'MenadMaryann_TB'
p4234
aS'Top2Bottom'
p4235
aS'RobynAnneClark'
p4236
aS'VampirePamelaR'
p4237
aS'truebloodink'
p4238
aS'MedicFiregirlie'
p4239
aS'Jobrdah92'
p4240
aS'CallmeJuicyJ'
p4241
aS'simplymoyer'
p4242
aS'KatieLouise22'
p4243
aS'pakislovaquia'
p4244
aS'TheFruitTrees'
p4245
aS'Alix_86'
p4246
aS'AJGlamModelTees'
p4247
aS'DavidKDavey'
p4248
aS'suaru_chan'
p4249
aS'walshattackk'
p4250
aS'Vampiraki'
p4251
aS'lamascity'
p4252
aS'VampCharlesT'
p4253
aS'yhyong'
p4254
aS'DeathRebirth67'
p4255
aS'GeraldineeM'
p4256
aS'nyanas_momma'
p4257
aS'SoccerChic902'
p4258
aS'Seelenkrank76'
p4259
aS'BiGBoBz31'
p4260
aS'lizzler217'
p4261
aS'Fancycarol07'
p4262
aS'jhunt7513'
p4263
aS'ayasoraya'
p4264
aS'Florzethy'
p4265
aS'vampirehardy'
p4266
aS'Fenix1975'
p4267
aS'LisaFowler_BT'
p4268
aS'ashley_beshears'
p4269
aS'johnmarkivey'
p4270
aS'ellielovesya'
p4271
asg300
(lp4272
S'tgraziosi'
p4273
aS'RoxyDiAngelo'
p4274
aS'SashaRN'
p4275
aS'ohrosiee'
p4276
aS'linzee80'
p4277
aS'KillaKel79'
p4278
aS'karleksliv'
p4279
aS'IDWPublishing'
p4280
aS'barbssss'
p4281
aS'LolitoBurr'
p4282
aS'bryndalicious'
p4283
aS'SamMerlotteTB'
p4284
aS'x_Kourtnee_x'
p4285
aS'TBEricNorthman'
p4286
aS'WereJake'
p4287
aS'MarcusBlaqueTB'
p4288
aS'VampTarynTB'
p4289
aS'Bethsgreeneyes'
p4290
aS'MarkDuffyBT'
p4291
aS'joeygirl75'
p4292
aS'Siena_Blood'
p4293
aS'sakers70'
p4294
aS'VampCharlesT'
p4295
aS'Lady_Celeste2'
p4296
aS'leemeatsix'
p4297
aS'frostedpears'
p4298
aS'BonTempsCoroner'
p4299
aS'TheColonelFlood'
p4300
aS'PeteOlsen'
p4301
aS'WereEmilio'
p4302
aS'VampireBillC'
p4303
aS'BTChamberofComm'
p4304
aS'Claudine_Crane'
p4305
aS'Misha_BT'
p4306
aS'weekendOhorrors'
p4307
aS'TineByrne'
p4308
aS'BT_Amelia'
p4309
aS'BTSookie'
p4310
aS'creepyassdoll'
p4311
aS'Franklin_Mott_'
p4312
aS'FeliciaVamp'
p4313
aS'ClaireRadcliff'
p4314
aS'BetteMidler'
p4315
aS'WereCulpepper'
p4316
aS'Jodi_Hodge'
p4317
aS'TB_Jesus'
p4318
aS'TheRealElvira'
p4319
aS'Khloe_Watson'
p4320
aS'WereAlcide'
p4321
aS'Summer_BT'
p4322
aS'Izzy_Beringer'
p4323
aS'Molly_Carlson'
p4324
aS'AngelAkatriel'
p4325
aS'Gran_Adele'
p4326
aS'WerePortugal'
p4327
aS'LukePreston_BT'
p4328
aS'GodricTB'
p4329
aS'JakePurifoy_BT'
p4330
aS'VikingWenches'
p4331
aS'BatsWingBar'
p4332
aS'Brent_TB'
p4333
aS'BranCrisp'
p4334
aS'Einalem312'
p4335
aS'DezyJones'
p4336
aS'sebensp3'
p4337
aS'nurse4125'
p4338
aS'elizabethhagar'
p4339
aS'artist_iyonna'
p4340
aS'eyrae'
p4341
aS'BrodyLangLang'
p4342
aS'natashawright33'
p4343
aS'narendra'
p4344
aS'Pam_Ravenscroft'
p4345
aS'Adam_Stacy'
p4346
aS'FangtasiaGinger'
p4347
aS'EricNorthmman'
p4348
aS'johnniefucker'
p4349
aS'halakahiki82'
p4350
aS'BTFreudMD'
p4351
aS'JessicaHambyBT'
p4352
aS'sourskittles10'
p4353
aS'PB22THUNDERUP'
p4354
aS'VooDooHooDooBT'
p4355
aS'BTFamilyDollar'
p4356
aS'CrystalNorrisTB'
p4357
aS'SophiesHadleyTB'
p4358
aS'BabyVampJessTB'
p4359
aS'RickDAlexander'
p4360
aS'TaraMThornton'
p4361
aS'TrueBloodRP'
p4362
aS'FangtasiaYvetta'
p4363
aS'TBbuzz'
p4364
aS'DebbiePTB'
p4365
aS'VampireRussell'
p4366
aS'Tararaboomdeah'
p4367
aS'MelindaMickens'
p4368
aS'SexWitch'
p4369
aS'denisohare'
p4370
aS'EliteSoulStar'
p4371
aS'SouthernSook84'
p4372
asg326
g3757
sg328
g329
(S'\x07\xda\x0b\x08\x141\x0b\t\xc3)'
p4373
tp4374
Rp4375
sa(dp4376
g2
(lp4377
(dp4378
S'favorited'
p4379
I00
sS'truncated'
p4380
I00
sS'text'
p4381
S"The 1st weekend in Nov. is coming, and it's still a great time to spot wildlife. What animals do you hope to see? http://on.fb.me/aJL5JS"
p4382
sS'created_at'
p4383
S'Fri Nov 05 19:44:26 +0000 2010'
p4384
sS'retweeted'
p4385
I00
sS'coordinates'
p4386
NsS'in_reply_to_status_id'
p4387
NsS'place'
p4388
NsS'in_reply_to_screen_name'
p4389
NsS'retweet_count'
p4390
NsS'geo'
p4391
NsS'id'
p4392
I634565823569920
sa(dp4393
S'favorited'
p4394
I00
sS'truncated'
p4395
I00
sS'text'
p4396
S"How well did Ultra Dawn's cleaning power stack up to TwitterMoms' expectations for tackling tough grease? http://bit.ly/aqRDjl #ultradawn"
p4397
sS'created_at'
p4398
S'Fri Oct 29 20:00:22 +0000 2010'
p4399
sS'retweeted'
p4400
I00
sS'coordinates'
p4401
NsS'in_reply_to_status_id'
p4402
NsS'place'
p4403
NsS'in_reply_to_screen_name'
p4404
NsS'retweet_count'
p4405
NsS'geo'
p4406
NsS'id'
p4407
I29118426981
sa(dp4408
S'favorited'
p4409
I00
sS'truncated'
p4410
I00
sS'text'
p4411
S'Ultra Dawn earned TwitterMoms Seal of Approval. See how real moms love the value it brings to the kitchen! http://bit.ly/aqRDjl #ultradawn'
p4412
sS'created_at'
p4413
S'Fri Oct 22 20:00:28 +0000 2010'
p4414
sS'retweeted'
p4415
I00
sS'coordinates'
p4416
NsS'in_reply_to_status_id'
p4417
NsS'place'
p4418
NsS'in_reply_to_screen_name'
p4419
NsS'retweet_count'
p4420
NsS'geo'
p4421
NsS'id'
p4422
I28435418351
sa(dp4423
S'favorited'
p4424
I00
sS'truncated'
p4425
I00
sS'text'
p4426
S'Thanks to @TMMC , 4 California sea lions went home this week! RT to thank the MMC and wish the seal lions a very happy release!'
p4427
sS'created_at'
p4428
S'Fri Oct 22 14:30:55 +0000 2010'
p4429
sS'retweeted'
p4430
I00
sS'coordinates'
p4431
NsS'in_reply_to_status_id'
p4432
NsS'place'
p4433
NsS'in_reply_to_screen_name'
p4434
NsS'retweet_count'
p4435
NsS'geo'
p4436
NsS'id'
p4437
I28409799322
sa(dp4438
S'favorited'
p4439
I00
sS'truncated'
p4440
I00
sS'text'
p4441
S'Ultra Dawn earned TwitterMoms Seal of Approval. See how real moms love the value it brings to the kitchen! http://bit.ly/aqRDjl #ultradawn'
p4442
sS'created_at'
p4443
S'Thu Oct 21 14:52:01 +0000 2010'
p4444
sS'retweeted'
p4445
I00
sS'coordinates'
p4446
NsS'in_reply_to_status_id'
p4447
NsS'place'
p4448
NsS'in_reply_to_screen_name'
p4449
NsS'retweet_count'
p4450
NsS'geo'
p4451
NsS'id'
p4452
I28033608628
sa(dp4453
S'favorited'
p4454
I00
sS'truncated'
p4455
I00
sS'text'
p4456
S"Greasy pans? Sticky cookie sheets? No problem! See how Ultra Dawn stood up to TwitterMoms' expectations at http://bit.ly/aqRDjl #ultradawn"
p4457
sS'created_at'
p4458
S'Tue Oct 19 20:00:22 +0000 2010'
p4459
sS'retweeted'
p4460
I00
sS'coordinates'
p4461
NsS'in_reply_to_status_id'
p4462
NsS'place'
p4463
NsS'in_reply_to_screen_name'
p4464
NsS'retweet_count'
p4465
NsS'geo'
p4466
NsS'id'
p4467
I27863821290
sa(dp4468
S'favorited'
p4469
I00
sS'truncated'
p4470
I00
sS'text'
p4471
S'Would you recommend Ultra Dawn to your friends, too? http://bit.ly/aqRDjl #ultradawn'
p4472
sS'created_at'
p4473
S'Fri Oct 15 20:00:19 +0000 2010'
p4474
sS'retweeted'
p4475
I00
sS'coordinates'
p4476
NsS'in_reply_to_status_id'
p4477
NsS'place'
p4478
NsS'in_reply_to_screen_name'
p4479
NsS'retweet_count'
p4480
NsS'geo'
p4481
NsS'id'
p4482
I27473600845
sa(dp4483
S'favorited'
p4484
I00
sS'truncated'
p4485
I00
sS'text'
p4486
S'Sorry about the loss of Don the Dishwasher, @wilw! Maybe Ultra Dawn can help you stay on top of your dishes in the meantime!'
p4487
sS'created_at'
p4488
S'Fri Oct 15 18:08:34 +0000 2010'
p4489
sS'retweeted'
p4490
I00
sS'coordinates'
p4491
NsS'in_reply_to_status_id'
p4492
NsS'place'
p4493
NsS'in_reply_to_screen_name'
p4494
NsS'retweet_count'
p4495
NsS'geo'
p4496
NsS'id'
p4497
I27465701769
sa(dp4498
S'favorited'
p4499
I00
sS'truncated'
p4500
I00
sS'text'
p4501
S'Great albatross has the largest wingspan of any bird and are highly efficient, soaring to cover great distances! http://on.fb.me/awWTQw'
p4502
sS'created_at'
p4503
S'Wed Oct 13 21:06:00 +0000 2010'
p4504
sS'retweeted'
p4505
I00
sS'coordinates'
p4506
NsS'in_reply_to_status_id'
p4507
NsS'place'
p4508
NsS'in_reply_to_screen_name'
p4509
NsS'retweet_count'
p4510
NsS'geo'
p4511
NsS'id'
p4512
I27276352744
sa(dp4513
S'favorited'
p4514
I00
sS'truncated'
p4515
I00
sS'text'
p4516
S"Want to know what TwitterMoms had to say about Ultra Dawn's performance? Get all the facts here: http://bit.ly/aqRDjl #ultradawn"
p4517
sS'created_at'
p4518
S'Tue Oct 12 20:00:40 +0000 2010'
p4519
sS'retweeted'
p4520
I00
sS'coordinates'
p4521
NsS'in_reply_to_status_id'
p4522
NsS'place'
p4523
NsS'in_reply_to_screen_name'
p4524
NsS'retweet_count'
p4525
NsS'geo'
p4526
NsS'id'
p4527
I27169336381
sa(dp4528
S'favorited'
p4529
I00
sS'truncated'
p4530
I00
sS'text'
p4531
S"Check out what @Brandweekdotcom had to say about Ultra Dawn's new TwitterMoms Seal of Approval: http://bit.ly/anFipP #ultradawn"
p4532
sS'created_at'
p4533
S'Fri Oct 08 20:00:26 +0000 2010'
p4534
sS'retweeted'
p4535
I00
sS'coordinates'
p4536
NsS'in_reply_to_status_id'
p4537
NsS'place'
p4538
NsS'in_reply_to_screen_name'
p4539
NsS'retweet_count'
p4540
NsS'geo'
p4541
NsS'id'
p4542
I26780450172
sa(dp4543
S'favorited'
p4544
I00
sS'truncated'
p4545
I00
sS'text'
p4546
S'The earliest sharks lived over 400 mil. yrs ago. There are 400+ species, and some shed 30,000 teeth in their lifetime http://on.fb.me/b7vY7W'
p4547
sS'created_at'
p4548
S'Wed Oct 06 23:00:00 +0000 2010'
p4549
sS'retweeted'
p4550
I00
sS'coordinates'
p4551
NsS'in_reply_to_status_id'
p4552
NsS'place'
p4553
NsS'in_reply_to_screen_name'
p4554
NsS'retweet_count'
p4555
NsS'geo'
p4556
NsS'id'
p4557
I26593204515
sa(dp4558
S'favorited'
p4559
I00
sS'truncated'
p4560
I00
sS'text'
p4561
S'Find out how Megan Calhoun and @twittermoms tested Ultra Dawn for value. Check out their results! http://bit.ly/aqRDjl #ultradawn'
p4562
sS'created_at'
p4563
S'Mon Oct 04 20:35:02 +0000 2010'
p4564
sS'retweeted'
p4565
I00
sS'coordinates'
p4566
NsS'in_reply_to_status_id'
p4567
NsS'place'
p4568
NsS'in_reply_to_screen_name'
p4569
NsS'retweet_count'
p4570
NsS'geo'
p4571
NsS'id'
p4572
I26393352709
sa(dp4573
S'favorited'
p4574
I00
sS'truncated'
p4575
I00
sS'text'
p4576
S'Most bats consume 1/3 of their body weight per night in insects. When hungry, they can ingest hundreds in one hour! http://bit.ly/adF5ge'
p4577
sS'created_at'
p4578
S'Wed Sep 29 21:59:46 +0000 2010'
p4579
sS'retweeted'
p4580
I00
sS'coordinates'
p4581
NsS'in_reply_to_status_id'
p4582
NsS'place'
p4583
NsS'in_reply_to_screen_name'
p4584
NsS'retweet_count'
p4585
NsS'geo'
p4586
NsS'id'
p4587
I25920813565
sa(dp4588
S'favorited'
p4589
I00
sS'truncated'
p4590
I00
sS'text'
p4591
S'Yesterday was Elephant Appreciation Day! Enjoy this video of a baby elephant getting in one last beach day. http://bit.ly/96LVAG'
p4592
sS'created_at'
p4593
S'Thu Sep 23 21:32:09 +0000 2010'
p4594
sS'retweeted'
p4595
I00
sS'coordinates'
p4596
NsS'in_reply_to_status_id'
p4597
NsS'place'
p4598
NsS'in_reply_to_screen_name'
p4599
NsS'retweet_count'
p4600
NsS'geo'
p4601
NsS'id'
p4602
I25344029091
sa(dp4603
S'favorited'
p4604
I00
sS'truncated'
p4605
I00
sS'text'
p4606
S'Minke whales can dive thousands of feet for up to 20 minutes at a time, at speeds up to 24 mph! Learn more here: http://bit.ly/9xHCnm'
p4607
sS'created_at'
p4608
S'Wed Sep 22 16:23:29 +0000 2010'
p4609
sS'retweeted'
p4610
I00
sS'coordinates'
p4611
NsS'in_reply_to_status_id'
p4612
NsS'place'
p4613
NsS'in_reply_to_screen_name'
p4614
NsS'retweet_count'
p4615
NsS'geo'
p4616
NsS'id'
p4617
I25225780318
sa(dp4618
S'favorited'
p4619
I00
sS'truncated'
p4620
I00
sS'text'
p4621
S'Did you know that sloths often grow algae in their fur, which helps them blend into the environment? Learn more here: http://bit.ly/90WpeX'
p4622
sS'created_at'
p4623
S'Thu Sep 16 21:06:48 +0000 2010'
p4624
sS'retweeted'
p4625
I00
sS'coordinates'
p4626
NsS'in_reply_to_status_id'
p4627
NsS'place'
p4628
NsS'in_reply_to_screen_name'
p4629
NsS'retweet_count'
p4630
NsS'geo'
p4631
NsS'id'
p4632
I24697334309
sa(dp4633
S'favorited'
p4634
I00
sS'truncated'
p4635
I00
sS'text'
p4636
VDo you have any fascinating wildlife facts to share with us? We might just feature it in tomorrow\u2019s Wildlife Wednesday! http://ow.ly/2EdeH
p4637
sS'created_at'
p4638
S'Tue Sep 14 20:08:54 +0000 2010'
p4639
sS'retweeted'
p4640
I00
sS'coordinates'
p4641
NsS'in_reply_to_status_id'
p4642
NsS'place'
p4643
NsS'in_reply_to_screen_name'
p4644
NsS'retweet_count'
p4645
NsS'geo'
p4646
NsS'id'
p4647
I24505285454
sa(dp4648
S'favorited'
p4649
I00
sS'truncated'
p4650
I00
sS'text'
p4651
S'What did you do last weekend to help wildlife? Have any tips for how to get involved? Share them here: http://bit.ly/8XA34h'
p4652
sS'created_at'
p4653
S'Mon Sep 13 21:18:18 +0000 2010'
p4654
sS'retweeted'
p4655
I00
sS'coordinates'
p4656
NsS'in_reply_to_status_id'
p4657
NsS'place'
p4658
NsS'in_reply_to_screen_name'
p4659
NsS'retweet_count'
p4660
NsS'geo'
p4661
NsS'id'
p4662
I24415837994
sa(dp4663
S'favorited'
p4664
I00
sS'truncated'
p4665
I00
sS'text'
p4666
S'Check out McNip, a patient at the Marine Mammal Center in California. http://bit.ly/bEFO1k Thanks, MMC, for taking care of the injured!'
p4667
sS'created_at'
p4668
S'Thu Sep 09 16:26:39 +0000 2010'
p4669
sS'retweeted'
p4670
I00
sS'coordinates'
p4671
NsS'in_reply_to_status_id'
p4672
NsS'place'
p4673
NsS'in_reply_to_screen_name'
p4674
NsS'retweet_count'
p4675
NsS'geo'
p4676
NsS'id'
p4677
I24024393247
sasg274
(lp4678
S'HappyCrazyLife'
p4679
aS'BusyWorkingMama'
p4680
aS'OneMommaSavingM'
p4681
aS'lebedaslife'
p4682
aS'PatNuckolls'
p4683
aS'yourbirdfeeder'
p4684
aS'ShowMeMama'
p4685
aS'mychicagomom'
p4686
aS'wawaisabutt'
p4687
aS'mychicagomommy'
p4688
aS'LeslieVeg'
p4689
aS'jackneff'
p4690
aS'mysolsticexiii'
p4691
aS'Crystalnjoe1105'
p4692
aS'brittmacc'
p4693
aS'Fateverywhere'
p4694
aS'DameStyle'
p4695
aS'NetWeave'
p4696
aS'johnnykowal'
p4697
aS'TheMakeoverMom'
p4698
aS'NewEyeMedia'
p4699
aS'daisymuffin23'
p4700
aS'chewlry'
p4701
aS'IamSucceeding'
p4702
aS'OTRcincy'
p4703
aS'DerryBi'
p4704
aS'ToiletPaperKing'
p4705
aS'khuanjaiokamoto'
p4706
aS'saramomof2'
p4707
aS'ameszt'
p4708
aS'OfeliaNJ'
p4709
aS'Jentifa'
p4710
aS'SocialGrocery'
p4711
aS'zjmckenzie'
p4712
aS'MedAliChebaane'
p4713
aS'Rittenhound'
p4714
aS'MapMondeOrg'
p4715
aS'martinhettich'
p4716
aS'TheJennT'
p4717
aS'TourGuyGuide'
p4718
aS'enchantmj'
p4719
aS'mackld'
p4720
aS'Deer4Hunter'
p4721
aS'kb905'
p4722
aS'steveewhite'
p4723
aS'Oceana'
p4724
aS'cangpt'
p4725
aS'tophunting'
p4726
aS'AuthorCassie'
p4727
aS'cmarcellais'
p4728
aS'mafepduarte'
p4729
aS'iamhappy1952'
p4730
aS'sknoppert'
p4731
aS'tzamy'
p4732
aS'alpineguru09'
p4733
aS'sweetmermaidmel'
p4734
aS'samantha_buttke'
p4735
aS'latinagirl1067'
p4736
aS'midnightangel4u'
p4737
aS'scottsocial'
p4738
aS'Pampers'
p4739
aS'beechwife'
p4740
aS'sidflo456'
p4741
aS'sarawyne'
p4742
aS'michaelpg'
p4743
aS'alamarche'
p4744
aS'ellebrayson'
p4745
aS'charliekkendo'
p4746
aS'skinpackaging'
p4747
aS'4evamamii'
p4748
aS'4u2nv_1913'
p4749
aS'CleanInstitute'
p4750
aS'jefferyjake'
p4751
aS'futureadexec'
p4752
aS'joshevire120'
p4753
aS'Dabbott15'
p4754
aS'RedNovaLabs'
p4755
aS'KevinDMcNabb'
p4756
aS'KellyOlexa'
p4757
aS'orgnix'
p4758
aS'NitroMojo'
p4759
aS'SaveWithSarah'
p4760
aS'BaerDesignGroup'
p4761
aS'helpanelephant'
p4762
aS'susieqtpies'
p4763
aS'Didacts'
p4764
aS'IoPP_Education'
p4765
aS'loritbranch'
p4766
aS'prepare4theend'
p4767
aS'fyeahrhpscaps'
p4768
aS'kellyareardon'
p4769
aS'SheSheOnTwittar'
p4770
aS'MalloryMunster'
p4771
aS'Yoiamway'
p4772
aS'PlayNSqueak'
p4773
aS'FloridaSKIPPER1'
p4774
aS'chelseakaitlin'
p4775
aS'Montecrossa'
p4776
aS'SHOCKMKT'
p4777
aS'SteviepWildlife'
p4778
asg300
(lp4779
S'barcoding'
p4780
aS'Rocky440'
p4781
aS'JennieOW'
p4782
aS'TheJennT'
p4783
aS'CareyD_Away'
p4784
aS'MySilverVolvo'
p4785
aS'ally005'
p4786
aS'Fitzgebd'
p4787
aS'wilw'
p4788
aS'editrix_kris'
p4789
aS'janeyblue'
p4790
aS'504_Gurl'
p4791
aS'heytheredude'
p4792
aS'kim_in_ky'
p4793
aS'lboucher45'
p4794
aS'MarkStalmans'
p4795
aS'sonjasexypants'
p4796
aS'lenijay'
p4797
aS'Mandy_Jane_'
p4798
aS'electric_goose'
p4799
aS'natersmommy'
p4800
aS'bethofagirl'
p4801
aS'rocknrobn22'
p4802
aS'blogNcoach'
p4803
aS'itsHolla'
p4804
aS'Lindsay_Caban'
p4805
aS'maloriepoole'
p4806
aS'jerricatherose'
p4807
aS'annehager'
p4808
aS'puglover0101'
p4809
aS'HeartofDC'
p4810
aS'jmereichert'
p4811
aS'MochaVee'
p4812
aS'syfy1972'
p4813
aS'monastery'
p4814
aS'KristinMasino'
p4815
aS'theAmyBlue'
p4816
aS'SarahPisciuneri'
p4817
aS'akulagirl'
p4818
aS'LisaQueenB'
p4819
aS'Shelmybelle'
p4820
aS'Canesgirl46'
p4821
aS'CubanDiva33'
p4822
aS'grahammegane'
p4823
aS'missigroller'
p4824
aS'natialvarez'
p4825
aS'hoyaerin915'
p4826
aS'vickspy'
p4827
aS'kevinkivi'
p4828
aS'E_D_W'
p4829
aS'pmacdaddy'
p4830
aS'cristinaperales'
p4831
aS'AnthonyZanfini'
p4832
aS'DisneyAnimals'
p4833
aS'codestripper'
p4834
aS'breylovinlife'
p4835
aS'ChrissyLever'
p4836
aS'debrahegerle'
p4837
aS'C_G_J'
p4838
aS'jessistafford'
p4839
aS'deniseemm'
p4840
aS'Stokar'
p4841
aS'piratecakes'
p4842
aS'RandomArchivist'
p4843
aS'daciakate'
p4844
aS'SonoraResort'
p4845
aS'Oneservant'
p4846
aS'motherbit3'
p4847
aS'LisainLouKY'
p4848
aS'StarsClds'
p4849
aS'ToletallyPaint'
p4850
aS'bearabledeals'
p4851
aS'trishwuerfele'
p4852
aS'MissMoonwalk'
p4853
aS'duanebailey'
p4854
aS'Suchislife4me'
p4855
aS'socialgumbo'
p4856
aS'Sandpiper0809'
p4857
aS'taracaitlin1'
p4858
aS'chriskemper'
p4859
aS'8151938'
p4860
aS'BrewskieButt'
p4861
aS'2wardthe1'
p4862
aS'CatAWhack'
p4863
aS'StacyHawthorne'
p4864
aS'ricbrockmeier'
p4865
aS'BlackCatII'
p4866
aS'1usagrunt'
p4867
aS'GoranSutinovski'
p4868
aS'ShirtThatCounts'
p4869
aS'STIRISTA'
p4870
aS'mverdemhumano'
p4871
aS'PhilEager'
p4872
aS'animaltrainer91'
p4873
aS'stopthehate_aca'
p4874
aS'wildlifesaver'
p4875
aS'sshreeves'
p4876
aS'LuvDogQuotes'
p4877
aS'BarkingBackbone'
p4878
aS'LorrainePastore'
p4879
asg326
g3715
sg328
g329
(S'\x07\xda\x0b\x08\x141\x17\x04u2'
p4880
tp4881
Rp4882
sa.